   1              	 .cpu cortex-m0
   2              	 .fpu softvfp
   3              	 .eabi_attribute 20,1
   4              	 .eabi_attribute 21,1
   5              	 .eabi_attribute 23,3
   6              	 .eabi_attribute 24,1
   7              	 .eabi_attribute 25,1
   8              	 .eabi_attribute 26,1
   9              	 .eabi_attribute 30,6
  10              	 .eabi_attribute 34,0
  11              	 .eabi_attribute 18,4
  12              	 .code 16
  13              	 .file "main.c"
  14              	 .text
  15              	.Ltext0:
  16              	 .cfi_sections .debug_frame
  17              	 .section .text.XMC_GPIO_SetOutputHigh,"ax",%progbits
  18              	 .align 2
  19              	 .code 16
  20              	 .thumb_func
  22              	XMC_GPIO_SetOutputHigh:
  23              	.LFB44:
  24              	 .file 1 "D:/Arduino Projects/Youtube/XMC1400 blinking LED Without Timers/LEDblinkNoTimers/Libraries/XMCLib/inc/xmc_gpio.h"
   1:D:/Arduino Projects/Youtube/XMC1400 blinking LED Without Timers/LEDblinkNoTimers/Libraries/XMCLib/inc\xmc_gpio.h **** /**
   2:D:/Arduino Projects/Youtube/XMC1400 blinking LED Without Timers/LEDblinkNoTimers/Libraries/XMCLib/inc\xmc_gpio.h ****  * @file xmc_gpio.h
   3:D:/Arduino Projects/Youtube/XMC1400 blinking LED Without Timers/LEDblinkNoTimers/Libraries/XMCLib/inc\xmc_gpio.h ****  * @date 2015-06-20
   4:D:/Arduino Projects/Youtube/XMC1400 blinking LED Without Timers/LEDblinkNoTimers/Libraries/XMCLib/inc\xmc_gpio.h ****  *
   5:D:/Arduino Projects/Youtube/XMC1400 blinking LED Without Timers/LEDblinkNoTimers/Libraries/XMCLib/inc\xmc_gpio.h ****  * @cond
   6:D:/Arduino Projects/Youtube/XMC1400 blinking LED Without Timers/LEDblinkNoTimers/Libraries/XMCLib/inc\xmc_gpio.h ****  *****************************************************************************
   7:D:/Arduino Projects/Youtube/XMC1400 blinking LED Without Timers/LEDblinkNoTimers/Libraries/XMCLib/inc\xmc_gpio.h ****  * XMClib v2.2.0 - XMC Peripheral Driver Library
   8:D:/Arduino Projects/Youtube/XMC1400 blinking LED Without Timers/LEDblinkNoTimers/Libraries/XMCLib/inc\xmc_gpio.h ****  *
   9:D:/Arduino Projects/Youtube/XMC1400 blinking LED Without Timers/LEDblinkNoTimers/Libraries/XMCLib/inc\xmc_gpio.h ****  * Copyright (c) 2015-2020, Infineon Technologies AG
  10:D:/Arduino Projects/Youtube/XMC1400 blinking LED Without Timers/LEDblinkNoTimers/Libraries/XMCLib/inc\xmc_gpio.h ****  * All rights reserved.
  11:D:/Arduino Projects/Youtube/XMC1400 blinking LED Without Timers/LEDblinkNoTimers/Libraries/XMCLib/inc\xmc_gpio.h ****  *
  12:D:/Arduino Projects/Youtube/XMC1400 blinking LED Without Timers/LEDblinkNoTimers/Libraries/XMCLib/inc\xmc_gpio.h ****  * Boost Software License - Version 1.0 - August 17th, 2003
  13:D:/Arduino Projects/Youtube/XMC1400 blinking LED Without Timers/LEDblinkNoTimers/Libraries/XMCLib/inc\xmc_gpio.h ****  *
  14:D:/Arduino Projects/Youtube/XMC1400 blinking LED Without Timers/LEDblinkNoTimers/Libraries/XMCLib/inc\xmc_gpio.h ****  * Permission is hereby granted, free of charge, to any person or organization
  15:D:/Arduino Projects/Youtube/XMC1400 blinking LED Without Timers/LEDblinkNoTimers/Libraries/XMCLib/inc\xmc_gpio.h ****  * obtaining a copy of the software and accompanying documentation covered by
  16:D:/Arduino Projects/Youtube/XMC1400 blinking LED Without Timers/LEDblinkNoTimers/Libraries/XMCLib/inc\xmc_gpio.h ****  * this license (the "Software") to use, reproduce, display, distribute,
  17:D:/Arduino Projects/Youtube/XMC1400 blinking LED Without Timers/LEDblinkNoTimers/Libraries/XMCLib/inc\xmc_gpio.h ****  * execute, and transmit the Software, and to prepare derivative works of the
  18:D:/Arduino Projects/Youtube/XMC1400 blinking LED Without Timers/LEDblinkNoTimers/Libraries/XMCLib/inc\xmc_gpio.h ****  * Software, and to permit third-parties to whom the Software is furnished to
  19:D:/Arduino Projects/Youtube/XMC1400 blinking LED Without Timers/LEDblinkNoTimers/Libraries/XMCLib/inc\xmc_gpio.h ****  * do so, all subject to the following:
  20:D:/Arduino Projects/Youtube/XMC1400 blinking LED Without Timers/LEDblinkNoTimers/Libraries/XMCLib/inc\xmc_gpio.h ****  *
  21:D:/Arduino Projects/Youtube/XMC1400 blinking LED Without Timers/LEDblinkNoTimers/Libraries/XMCLib/inc\xmc_gpio.h ****  * The copyright notices in the Software and this entire statement, including
  22:D:/Arduino Projects/Youtube/XMC1400 blinking LED Without Timers/LEDblinkNoTimers/Libraries/XMCLib/inc\xmc_gpio.h ****  * the above license grant, this restriction and the following disclaimer,
  23:D:/Arduino Projects/Youtube/XMC1400 blinking LED Without Timers/LEDblinkNoTimers/Libraries/XMCLib/inc\xmc_gpio.h ****  * must be included in all copies of the Software, in whole or in part, and
  24:D:/Arduino Projects/Youtube/XMC1400 blinking LED Without Timers/LEDblinkNoTimers/Libraries/XMCLib/inc\xmc_gpio.h ****  * all derivative works of the Software, unless such copies or derivative
  25:D:/Arduino Projects/Youtube/XMC1400 blinking LED Without Timers/LEDblinkNoTimers/Libraries/XMCLib/inc\xmc_gpio.h ****  * works are solely in the form of machine-executable object code generated by
  26:D:/Arduino Projects/Youtube/XMC1400 blinking LED Without Timers/LEDblinkNoTimers/Libraries/XMCLib/inc\xmc_gpio.h ****  * a source language processor.
  27:D:/Arduino Projects/Youtube/XMC1400 blinking LED Without Timers/LEDblinkNoTimers/Libraries/XMCLib/inc\xmc_gpio.h ****  *
  28:D:/Arduino Projects/Youtube/XMC1400 blinking LED Without Timers/LEDblinkNoTimers/Libraries/XMCLib/inc\xmc_gpio.h ****  * THE SOFTWARE IS PROVIDED "AS IS", WITHOUT WARRANTY OF ANY KIND, EXPRESS OR
  29:D:/Arduino Projects/Youtube/XMC1400 blinking LED Without Timers/LEDblinkNoTimers/Libraries/XMCLib/inc\xmc_gpio.h ****  * IMPLIED, INCLUDING BUT NOT LIMITED TO THE WARRANTIES OF MERCHANTABILITY,
  30:D:/Arduino Projects/Youtube/XMC1400 blinking LED Without Timers/LEDblinkNoTimers/Libraries/XMCLib/inc\xmc_gpio.h ****  * FITNESS FOR A PARTICULAR PURPOSE, TITLE AND NON-INFRINGEMENT. IN NO EVENT
  31:D:/Arduino Projects/Youtube/XMC1400 blinking LED Without Timers/LEDblinkNoTimers/Libraries/XMCLib/inc\xmc_gpio.h ****  * SHALL THE COPYRIGHT HOLDERS OR ANYONE DISTRIBUTING THE SOFTWARE BE LIABLE
  32:D:/Arduino Projects/Youtube/XMC1400 blinking LED Without Timers/LEDblinkNoTimers/Libraries/XMCLib/inc\xmc_gpio.h ****  * FOR ANY DAMAGES OR OTHER LIABILITY, WHETHER IN CONTRACT, TORT OR OTHERWISE,
  33:D:/Arduino Projects/Youtube/XMC1400 blinking LED Without Timers/LEDblinkNoTimers/Libraries/XMCLib/inc\xmc_gpio.h ****  * ARISING FROM, OUT OF OR IN CONNECTION WITH THE SOFTWARE OR THE USE OR OTHER
  34:D:/Arduino Projects/Youtube/XMC1400 blinking LED Without Timers/LEDblinkNoTimers/Libraries/XMCLib/inc\xmc_gpio.h ****  * DEALINGS IN THE SOFTWARE.
  35:D:/Arduino Projects/Youtube/XMC1400 blinking LED Without Timers/LEDblinkNoTimers/Libraries/XMCLib/inc\xmc_gpio.h ****  *
  36:D:/Arduino Projects/Youtube/XMC1400 blinking LED Without Timers/LEDblinkNoTimers/Libraries/XMCLib/inc\xmc_gpio.h ****  * To improve the quality of the software, users are encouraged to share
  37:D:/Arduino Projects/Youtube/XMC1400 blinking LED Without Timers/LEDblinkNoTimers/Libraries/XMCLib/inc\xmc_gpio.h ****  * modifications, enhancements or bug fixes with Infineon Technologies AG
  38:D:/Arduino Projects/Youtube/XMC1400 blinking LED Without Timers/LEDblinkNoTimers/Libraries/XMCLib/inc\xmc_gpio.h ****  * at XMCSupport@infineon.com.
  39:D:/Arduino Projects/Youtube/XMC1400 blinking LED Without Timers/LEDblinkNoTimers/Libraries/XMCLib/inc\xmc_gpio.h ****  *****************************************************************************
  40:D:/Arduino Projects/Youtube/XMC1400 blinking LED Without Timers/LEDblinkNoTimers/Libraries/XMCLib/inc\xmc_gpio.h ****  *
  41:D:/Arduino Projects/Youtube/XMC1400 blinking LED Without Timers/LEDblinkNoTimers/Libraries/XMCLib/inc\xmc_gpio.h ****  * Change History
  42:D:/Arduino Projects/Youtube/XMC1400 blinking LED Without Timers/LEDblinkNoTimers/Libraries/XMCLib/inc\xmc_gpio.h ****  * --------------
  43:D:/Arduino Projects/Youtube/XMC1400 blinking LED Without Timers/LEDblinkNoTimers/Libraries/XMCLib/inc\xmc_gpio.h ****  *
  44:D:/Arduino Projects/Youtube/XMC1400 blinking LED Without Timers/LEDblinkNoTimers/Libraries/XMCLib/inc\xmc_gpio.h ****  * 2015-02-20:
  45:D:/Arduino Projects/Youtube/XMC1400 blinking LED Without Timers/LEDblinkNoTimers/Libraries/XMCLib/inc\xmc_gpio.h ****  *     - Initial draft<br>
  46:D:/Arduino Projects/Youtube/XMC1400 blinking LED Without Timers/LEDblinkNoTimers/Libraries/XMCLib/inc\xmc_gpio.h ****  *     - Documentation improved <br>
  47:D:/Arduino Projects/Youtube/XMC1400 blinking LED Without Timers/LEDblinkNoTimers/Libraries/XMCLib/inc\xmc_gpio.h ****  *
  48:D:/Arduino Projects/Youtube/XMC1400 blinking LED Without Timers/LEDblinkNoTimers/Libraries/XMCLib/inc\xmc_gpio.h ****  * 2015-06-20:
  49:D:/Arduino Projects/Youtube/XMC1400 blinking LED Without Timers/LEDblinkNoTimers/Libraries/XMCLib/inc\xmc_gpio.h ****  *     - Removed version macros and declaration of GetDriverVersion API
  50:D:/Arduino Projects/Youtube/XMC1400 blinking LED Without Timers/LEDblinkNoTimers/Libraries/XMCLib/inc\xmc_gpio.h ****  *
  51:D:/Arduino Projects/Youtube/XMC1400 blinking LED Without Timers/LEDblinkNoTimers/Libraries/XMCLib/inc\xmc_gpio.h ****  * @endcond
  52:D:/Arduino Projects/Youtube/XMC1400 blinking LED Without Timers/LEDblinkNoTimers/Libraries/XMCLib/inc\xmc_gpio.h ****  *
  53:D:/Arduino Projects/Youtube/XMC1400 blinking LED Without Timers/LEDblinkNoTimers/Libraries/XMCLib/inc\xmc_gpio.h ****  */
  54:D:/Arduino Projects/Youtube/XMC1400 blinking LED Without Timers/LEDblinkNoTimers/Libraries/XMCLib/inc\xmc_gpio.h **** 
  55:D:/Arduino Projects/Youtube/XMC1400 blinking LED Without Timers/LEDblinkNoTimers/Libraries/XMCLib/inc\xmc_gpio.h **** #ifndef XMC_GPIO_H
  56:D:/Arduino Projects/Youtube/XMC1400 blinking LED Without Timers/LEDblinkNoTimers/Libraries/XMCLib/inc\xmc_gpio.h **** #define XMC_GPIO_H
  57:D:/Arduino Projects/Youtube/XMC1400 blinking LED Without Timers/LEDblinkNoTimers/Libraries/XMCLib/inc\xmc_gpio.h **** 
  58:D:/Arduino Projects/Youtube/XMC1400 blinking LED Without Timers/LEDblinkNoTimers/Libraries/XMCLib/inc\xmc_gpio.h **** /**************************************************************************************************
  59:D:/Arduino Projects/Youtube/XMC1400 blinking LED Without Timers/LEDblinkNoTimers/Libraries/XMCLib/inc\xmc_gpio.h ****  * HEADER FILES
  60:D:/Arduino Projects/Youtube/XMC1400 blinking LED Without Timers/LEDblinkNoTimers/Libraries/XMCLib/inc\xmc_gpio.h ****  **************************************************************************************************
  61:D:/Arduino Projects/Youtube/XMC1400 blinking LED Without Timers/LEDblinkNoTimers/Libraries/XMCLib/inc\xmc_gpio.h **** 
  62:D:/Arduino Projects/Youtube/XMC1400 blinking LED Without Timers/LEDblinkNoTimers/Libraries/XMCLib/inc\xmc_gpio.h **** #include "xmc_common.h"
  63:D:/Arduino Projects/Youtube/XMC1400 blinking LED Without Timers/LEDblinkNoTimers/Libraries/XMCLib/inc\xmc_gpio.h **** 
  64:D:/Arduino Projects/Youtube/XMC1400 blinking LED Without Timers/LEDblinkNoTimers/Libraries/XMCLib/inc\xmc_gpio.h **** /**
  65:D:/Arduino Projects/Youtube/XMC1400 blinking LED Without Timers/LEDblinkNoTimers/Libraries/XMCLib/inc\xmc_gpio.h ****  * @addtogroup XMClib XMC Peripheral Library
  66:D:/Arduino Projects/Youtube/XMC1400 blinking LED Without Timers/LEDblinkNoTimers/Libraries/XMCLib/inc\xmc_gpio.h ****  * @{
  67:D:/Arduino Projects/Youtube/XMC1400 blinking LED Without Timers/LEDblinkNoTimers/Libraries/XMCLib/inc\xmc_gpio.h ****  */
  68:D:/Arduino Projects/Youtube/XMC1400 blinking LED Without Timers/LEDblinkNoTimers/Libraries/XMCLib/inc\xmc_gpio.h **** 
  69:D:/Arduino Projects/Youtube/XMC1400 blinking LED Without Timers/LEDblinkNoTimers/Libraries/XMCLib/inc\xmc_gpio.h **** /**
  70:D:/Arduino Projects/Youtube/XMC1400 blinking LED Without Timers/LEDblinkNoTimers/Libraries/XMCLib/inc\xmc_gpio.h ****  * @addtogroup GPIO
  71:D:/Arduino Projects/Youtube/XMC1400 blinking LED Without Timers/LEDblinkNoTimers/Libraries/XMCLib/inc\xmc_gpio.h ****  * @brief General Purpose Input Output (GPIO) driver for the XMC microcontroller family.
  72:D:/Arduino Projects/Youtube/XMC1400 blinking LED Without Timers/LEDblinkNoTimers/Libraries/XMCLib/inc\xmc_gpio.h ****  *
  73:D:/Arduino Projects/Youtube/XMC1400 blinking LED Without Timers/LEDblinkNoTimers/Libraries/XMCLib/inc\xmc_gpio.h ****  * GPIO driver provide a generic and very flexible software interface for all standard digital I/O 
  74:D:/Arduino Projects/Youtube/XMC1400 blinking LED Without Timers/LEDblinkNoTimers/Libraries/XMCLib/inc\xmc_gpio.h ****  * Each port slice has individual interfaces for the operation as General Purpose I/O and it furthe
  75:D:/Arduino Projects/Youtube/XMC1400 blinking LED Without Timers/LEDblinkNoTimers/Libraries/XMCLib/inc\xmc_gpio.h ****  * connectivity to the on-chip periphery and the control for the pad characteristics.
  76:D:/Arduino Projects/Youtube/XMC1400 blinking LED Without Timers/LEDblinkNoTimers/Libraries/XMCLib/inc\xmc_gpio.h ****  *
  77:D:/Arduino Projects/Youtube/XMC1400 blinking LED Without Timers/LEDblinkNoTimers/Libraries/XMCLib/inc\xmc_gpio.h ****  * The driver is divided into Input and Output mode.
  78:D:/Arduino Projects/Youtube/XMC1400 blinking LED Without Timers/LEDblinkNoTimers/Libraries/XMCLib/inc\xmc_gpio.h ****  *
  79:D:/Arduino Projects/Youtube/XMC1400 blinking LED Without Timers/LEDblinkNoTimers/Libraries/XMCLib/inc\xmc_gpio.h ****  * Input mode features:
  80:D:/Arduino Projects/Youtube/XMC1400 blinking LED Without Timers/LEDblinkNoTimers/Libraries/XMCLib/inc\xmc_gpio.h ****  * -# Configuration structure XMC_GPIO_CONFIG_t and initialization function XMC_GPIO_Init()
  81:D:/Arduino Projects/Youtube/XMC1400 blinking LED Without Timers/LEDblinkNoTimers/Libraries/XMCLib/inc\xmc_gpio.h ****  * -# Allows the selection of weak pull-up or pull-down device. Configuration structure XMC_GPIO_MO
  82:D:/Arduino Projects/Youtube/XMC1400 blinking LED Without Timers/LEDblinkNoTimers/Libraries/XMCLib/inc\xmc_gpio.h ****  * \if XMC1
  83:D:/Arduino Projects/Youtube/XMC1400 blinking LED Without Timers/LEDblinkNoTimers/Libraries/XMCLib/inc\xmc_gpio.h ****  * -# Allows the selection of input hysteresis. XMC_GPIO_SetInputHysteresis()
  84:D:/Arduino Projects/Youtube/XMC1400 blinking LED Without Timers/LEDblinkNoTimers/Libraries/XMCLib/inc\xmc_gpio.h ****  * \endif
  85:D:/Arduino Projects/Youtube/XMC1400 blinking LED Without Timers/LEDblinkNoTimers/Libraries/XMCLib/inc\xmc_gpio.h ****  *
  86:D:/Arduino Projects/Youtube/XMC1400 blinking LED Without Timers/LEDblinkNoTimers/Libraries/XMCLib/inc\xmc_gpio.h ****  *
  87:D:/Arduino Projects/Youtube/XMC1400 blinking LED Without Timers/LEDblinkNoTimers/Libraries/XMCLib/inc\xmc_gpio.h ****  * Output mode features:
  88:D:/Arduino Projects/Youtube/XMC1400 blinking LED Without Timers/LEDblinkNoTimers/Libraries/XMCLib/inc\xmc_gpio.h ****  * -# Allows the selection of push pull/open drain and Alternate output. Configuration structure XM
  89:D:/Arduino Projects/Youtube/XMC1400 blinking LED Without Timers/LEDblinkNoTimers/Libraries/XMCLib/inc\xmc_gpio.h ****  * \if XMC4
  90:D:/Arduino Projects/Youtube/XMC1400 blinking LED Without Timers/LEDblinkNoTimers/Libraries/XMCLib/inc\xmc_gpio.h ****  * -# Allows the selection of pad driver strength. Configuration structure XMC_GPIO_OUTPUT_STRENGTH
  91:D:/Arduino Projects/Youtube/XMC1400 blinking LED Without Timers/LEDblinkNoTimers/Libraries/XMCLib/inc\xmc_gpio.h ****  * \endif
  92:D:/Arduino Projects/Youtube/XMC1400 blinking LED Without Timers/LEDblinkNoTimers/Libraries/XMCLib/inc\xmc_gpio.h ****  *
  93:D:/Arduino Projects/Youtube/XMC1400 blinking LED Without Timers/LEDblinkNoTimers/Libraries/XMCLib/inc\xmc_gpio.h ****  * -# Allows the selection of initial output level. Configuration structure XMC_GPIO_OUTPUT_LEVEL_t
  94:D:/Arduino Projects/Youtube/XMC1400 blinking LED Without Timers/LEDblinkNoTimers/Libraries/XMCLib/inc\xmc_gpio.h ****  *
  95:D:/Arduino Projects/Youtube/XMC1400 blinking LED Without Timers/LEDblinkNoTimers/Libraries/XMCLib/inc\xmc_gpio.h ****  *@{
  96:D:/Arduino Projects/Youtube/XMC1400 blinking LED Without Timers/LEDblinkNoTimers/Libraries/XMCLib/inc\xmc_gpio.h ****  */
  97:D:/Arduino Projects/Youtube/XMC1400 blinking LED Without Timers/LEDblinkNoTimers/Libraries/XMCLib/inc\xmc_gpio.h **** 
  98:D:/Arduino Projects/Youtube/XMC1400 blinking LED Without Timers/LEDblinkNoTimers/Libraries/XMCLib/inc\xmc_gpio.h **** /**************************************************************************************************
  99:D:/Arduino Projects/Youtube/XMC1400 blinking LED Without Timers/LEDblinkNoTimers/Libraries/XMCLib/inc\xmc_gpio.h ****  * MACROS
 100:D:/Arduino Projects/Youtube/XMC1400 blinking LED Without Timers/LEDblinkNoTimers/Libraries/XMCLib/inc\xmc_gpio.h ****  **************************************************************************************************
 101:D:/Arduino Projects/Youtube/XMC1400 blinking LED Without Timers/LEDblinkNoTimers/Libraries/XMCLib/inc\xmc_gpio.h **** 
 102:D:/Arduino Projects/Youtube/XMC1400 blinking LED Without Timers/LEDblinkNoTimers/Libraries/XMCLib/inc\xmc_gpio.h **** #define PORT_IOCR_PC_Pos PORT0_IOCR0_PC0_Pos
 103:D:/Arduino Projects/Youtube/XMC1400 blinking LED Without Timers/LEDblinkNoTimers/Libraries/XMCLib/inc\xmc_gpio.h **** #define PORT_IOCR_PC_Msk PORT0_IOCR0_PC0_Msk
 104:D:/Arduino Projects/Youtube/XMC1400 blinking LED Without Timers/LEDblinkNoTimers/Libraries/XMCLib/inc\xmc_gpio.h **** 
 105:D:/Arduino Projects/Youtube/XMC1400 blinking LED Without Timers/LEDblinkNoTimers/Libraries/XMCLib/inc\xmc_gpio.h **** #define PORT_IOCR_PC_Size 				(8U)
 106:D:/Arduino Projects/Youtube/XMC1400 blinking LED Without Timers/LEDblinkNoTimers/Libraries/XMCLib/inc\xmc_gpio.h **** 
 107:D:/Arduino Projects/Youtube/XMC1400 blinking LED Without Timers/LEDblinkNoTimers/Libraries/XMCLib/inc\xmc_gpio.h **** 
 108:D:/Arduino Projects/Youtube/XMC1400 blinking LED Without Timers/LEDblinkNoTimers/Libraries/XMCLib/inc\xmc_gpio.h **** #define XMC_GPIO_CHECK_OUTPUT_LEVEL(level) ((level == XMC_GPIO_OUTPUT_LEVEL_LOW) || \
 109:D:/Arduino Projects/Youtube/XMC1400 blinking LED Without Timers/LEDblinkNoTimers/Libraries/XMCLib/inc\xmc_gpio.h ****                                             (level == XMC_GPIO_OUTPUT_LEVEL_HIGH))
 110:D:/Arduino Projects/Youtube/XMC1400 blinking LED Without Timers/LEDblinkNoTimers/Libraries/XMCLib/inc\xmc_gpio.h **** 
 111:D:/Arduino Projects/Youtube/XMC1400 blinking LED Without Timers/LEDblinkNoTimers/Libraries/XMCLib/inc\xmc_gpio.h **** #define XMC_GPIO_CHECK_HWCTRL(hwctrl) ((hwctrl == XMC_GPIO_HWCTRL_DISABLED) || \
 112:D:/Arduino Projects/Youtube/XMC1400 blinking LED Without Timers/LEDblinkNoTimers/Libraries/XMCLib/inc\xmc_gpio.h ****                                        (hwctrl == XMC_GPIO_HWCTRL_PERIPHERAL1) || \
 113:D:/Arduino Projects/Youtube/XMC1400 blinking LED Without Timers/LEDblinkNoTimers/Libraries/XMCLib/inc\xmc_gpio.h ****                                        (hwctrl == XMC_GPIO_HWCTRL_PERIPHERAL2))
 114:D:/Arduino Projects/Youtube/XMC1400 blinking LED Without Timers/LEDblinkNoTimers/Libraries/XMCLib/inc\xmc_gpio.h **** 
 115:D:/Arduino Projects/Youtube/XMC1400 blinking LED Without Timers/LEDblinkNoTimers/Libraries/XMCLib/inc\xmc_gpio.h **** /**************************************************************************************************
 116:D:/Arduino Projects/Youtube/XMC1400 blinking LED Without Timers/LEDblinkNoTimers/Libraries/XMCLib/inc\xmc_gpio.h ****  * ENUMS
 117:D:/Arduino Projects/Youtube/XMC1400 blinking LED Without Timers/LEDblinkNoTimers/Libraries/XMCLib/inc\xmc_gpio.h ****  **************************************************************************************************
 118:D:/Arduino Projects/Youtube/XMC1400 blinking LED Without Timers/LEDblinkNoTimers/Libraries/XMCLib/inc\xmc_gpio.h **** 
 119:D:/Arduino Projects/Youtube/XMC1400 blinking LED Without Timers/LEDblinkNoTimers/Libraries/XMCLib/inc\xmc_gpio.h **** 
 120:D:/Arduino Projects/Youtube/XMC1400 blinking LED Without Timers/LEDblinkNoTimers/Libraries/XMCLib/inc\xmc_gpio.h **** /**
 121:D:/Arduino Projects/Youtube/XMC1400 blinking LED Without Timers/LEDblinkNoTimers/Libraries/XMCLib/inc\xmc_gpio.h ****  * Defines output level of a pin. Use type \a XMC_GPIO_OUTPUT_LEVEL_t for this enum.
 122:D:/Arduino Projects/Youtube/XMC1400 blinking LED Without Timers/LEDblinkNoTimers/Libraries/XMCLib/inc\xmc_gpio.h ****  */
 123:D:/Arduino Projects/Youtube/XMC1400 blinking LED Without Timers/LEDblinkNoTimers/Libraries/XMCLib/inc\xmc_gpio.h **** typedef enum XMC_GPIO_OUTPUT_LEVEL
 124:D:/Arduino Projects/Youtube/XMC1400 blinking LED Without Timers/LEDblinkNoTimers/Libraries/XMCLib/inc\xmc_gpio.h **** {
 125:D:/Arduino Projects/Youtube/XMC1400 blinking LED Without Timers/LEDblinkNoTimers/Libraries/XMCLib/inc\xmc_gpio.h ****   XMC_GPIO_OUTPUT_LEVEL_LOW  = 0x10000U, /**<  Reset bit */
 126:D:/Arduino Projects/Youtube/XMC1400 blinking LED Without Timers/LEDblinkNoTimers/Libraries/XMCLib/inc\xmc_gpio.h ****   XMC_GPIO_OUTPUT_LEVEL_HIGH = 0x1U, 	/**< Set bit  */
 127:D:/Arduino Projects/Youtube/XMC1400 blinking LED Without Timers/LEDblinkNoTimers/Libraries/XMCLib/inc\xmc_gpio.h **** } XMC_GPIO_OUTPUT_LEVEL_t;
 128:D:/Arduino Projects/Youtube/XMC1400 blinking LED Without Timers/LEDblinkNoTimers/Libraries/XMCLib/inc\xmc_gpio.h **** 
 129:D:/Arduino Projects/Youtube/XMC1400 blinking LED Without Timers/LEDblinkNoTimers/Libraries/XMCLib/inc\xmc_gpio.h **** /**
 130:D:/Arduino Projects/Youtube/XMC1400 blinking LED Without Timers/LEDblinkNoTimers/Libraries/XMCLib/inc\xmc_gpio.h ****  * Defines direct hardware control characteristics of the pin . Use type \a XMC_GPIO_HWCTRL_t for t
 131:D:/Arduino Projects/Youtube/XMC1400 blinking LED Without Timers/LEDblinkNoTimers/Libraries/XMCLib/inc\xmc_gpio.h ****  */
 132:D:/Arduino Projects/Youtube/XMC1400 blinking LED Without Timers/LEDblinkNoTimers/Libraries/XMCLib/inc\xmc_gpio.h **** typedef enum XMC_GPIO_HWCTRL
 133:D:/Arduino Projects/Youtube/XMC1400 blinking LED Without Timers/LEDblinkNoTimers/Libraries/XMCLib/inc\xmc_gpio.h **** {
 134:D:/Arduino Projects/Youtube/XMC1400 blinking LED Without Timers/LEDblinkNoTimers/Libraries/XMCLib/inc\xmc_gpio.h ****   XMC_GPIO_HWCTRL_DISABLED     = 0x0U, /**<  Software control only */
 135:D:/Arduino Projects/Youtube/XMC1400 blinking LED Without Timers/LEDblinkNoTimers/Libraries/XMCLib/inc\xmc_gpio.h ****   XMC_GPIO_HWCTRL_PERIPHERAL1  = 0x1U, /**<  HWI0/HWO0 control path can override the software confi
 136:D:/Arduino Projects/Youtube/XMC1400 blinking LED Without Timers/LEDblinkNoTimers/Libraries/XMCLib/inc\xmc_gpio.h ****   XMC_GPIO_HWCTRL_PERIPHERAL2  = 0x2U  /**<  HWI1/HWO1 control path can override the software confi
 137:D:/Arduino Projects/Youtube/XMC1400 blinking LED Without Timers/LEDblinkNoTimers/Libraries/XMCLib/inc\xmc_gpio.h **** } XMC_GPIO_HWCTRL_t;
 138:D:/Arduino Projects/Youtube/XMC1400 blinking LED Without Timers/LEDblinkNoTimers/Libraries/XMCLib/inc\xmc_gpio.h **** 
 139:D:/Arduino Projects/Youtube/XMC1400 blinking LED Without Timers/LEDblinkNoTimers/Libraries/XMCLib/inc\xmc_gpio.h **** /**************************************************************************************************
 140:D:/Arduino Projects/Youtube/XMC1400 blinking LED Without Timers/LEDblinkNoTimers/Libraries/XMCLib/inc\xmc_gpio.h ****  * DEVICE FAMILY EXTENSIONS
 141:D:/Arduino Projects/Youtube/XMC1400 blinking LED Without Timers/LEDblinkNoTimers/Libraries/XMCLib/inc\xmc_gpio.h ****  **************************************************************************************************
 142:D:/Arduino Projects/Youtube/XMC1400 blinking LED Without Timers/LEDblinkNoTimers/Libraries/XMCLib/inc\xmc_gpio.h **** 
 143:D:/Arduino Projects/Youtube/XMC1400 blinking LED Without Timers/LEDblinkNoTimers/Libraries/XMCLib/inc\xmc_gpio.h **** #if UC_FAMILY == XMC1
 144:D:/Arduino Projects/Youtube/XMC1400 blinking LED Without Timers/LEDblinkNoTimers/Libraries/XMCLib/inc\xmc_gpio.h **** #include "xmc1_gpio.h"
 145:D:/Arduino Projects/Youtube/XMC1400 blinking LED Without Timers/LEDblinkNoTimers/Libraries/XMCLib/inc\xmc_gpio.h **** #elif UC_FAMILY == XMC4
 146:D:/Arduino Projects/Youtube/XMC1400 blinking LED Without Timers/LEDblinkNoTimers/Libraries/XMCLib/inc\xmc_gpio.h **** #include "xmc4_gpio.h"
 147:D:/Arduino Projects/Youtube/XMC1400 blinking LED Without Timers/LEDblinkNoTimers/Libraries/XMCLib/inc\xmc_gpio.h **** #else
 148:D:/Arduino Projects/Youtube/XMC1400 blinking LED Without Timers/LEDblinkNoTimers/Libraries/XMCLib/inc\xmc_gpio.h **** #error "xmc_gpio.h: family device not supported"
 149:D:/Arduino Projects/Youtube/XMC1400 blinking LED Without Timers/LEDblinkNoTimers/Libraries/XMCLib/inc\xmc_gpio.h **** #endif
 150:D:/Arduino Projects/Youtube/XMC1400 blinking LED Without Timers/LEDblinkNoTimers/Libraries/XMCLib/inc\xmc_gpio.h **** 
 151:D:/Arduino Projects/Youtube/XMC1400 blinking LED Without Timers/LEDblinkNoTimers/Libraries/XMCLib/inc\xmc_gpio.h **** /**************************************************************************************************
 152:D:/Arduino Projects/Youtube/XMC1400 blinking LED Without Timers/LEDblinkNoTimers/Libraries/XMCLib/inc\xmc_gpio.h ****  * API PROTOTYPES
 153:D:/Arduino Projects/Youtube/XMC1400 blinking LED Without Timers/LEDblinkNoTimers/Libraries/XMCLib/inc\xmc_gpio.h ****  **************************************************************************************************
 154:D:/Arduino Projects/Youtube/XMC1400 blinking LED Without Timers/LEDblinkNoTimers/Libraries/XMCLib/inc\xmc_gpio.h **** 
 155:D:/Arduino Projects/Youtube/XMC1400 blinking LED Without Timers/LEDblinkNoTimers/Libraries/XMCLib/inc\xmc_gpio.h **** #ifdef __cplusplus
 156:D:/Arduino Projects/Youtube/XMC1400 blinking LED Without Timers/LEDblinkNoTimers/Libraries/XMCLib/inc\xmc_gpio.h **** extern "C" {
 157:D:/Arduino Projects/Youtube/XMC1400 blinking LED Without Timers/LEDblinkNoTimers/Libraries/XMCLib/inc\xmc_gpio.h **** #endif
 158:D:/Arduino Projects/Youtube/XMC1400 blinking LED Without Timers/LEDblinkNoTimers/Libraries/XMCLib/inc\xmc_gpio.h **** 
 159:D:/Arduino Projects/Youtube/XMC1400 blinking LED Without Timers/LEDblinkNoTimers/Libraries/XMCLib/inc\xmc_gpio.h **** 
 160:D:/Arduino Projects/Youtube/XMC1400 blinking LED Without Timers/LEDblinkNoTimers/Libraries/XMCLib/inc\xmc_gpio.h **** /**
 161:D:/Arduino Projects/Youtube/XMC1400 blinking LED Without Timers/LEDblinkNoTimers/Libraries/XMCLib/inc\xmc_gpio.h ****  * @param  port	  Constant pointer pointing to GPIO port, to access port registers like Pn_OUT,Pn_O
 162:D:/Arduino Projects/Youtube/XMC1400 blinking LED Without Timers/LEDblinkNoTimers/Libraries/XMCLib/inc\xmc_gpio.h ****  * @param  pin	  Port pin number.
 163:D:/Arduino Projects/Youtube/XMC1400 blinking LED Without Timers/LEDblinkNoTimers/Libraries/XMCLib/inc\xmc_gpio.h ****  * @param  config GPIO configuration data structure. Refer data structure @ref XMC_GPIO_CONFIG_t fo
 164:D:/Arduino Projects/Youtube/XMC1400 blinking LED Without Timers/LEDblinkNoTimers/Libraries/XMCLib/inc\xmc_gpio.h ****  *
 165:D:/Arduino Projects/Youtube/XMC1400 blinking LED Without Timers/LEDblinkNoTimers/Libraries/XMCLib/inc\xmc_gpio.h ****  * @return None
 166:D:/Arduino Projects/Youtube/XMC1400 blinking LED Without Timers/LEDblinkNoTimers/Libraries/XMCLib/inc\xmc_gpio.h ****  *
 167:D:/Arduino Projects/Youtube/XMC1400 blinking LED Without Timers/LEDblinkNoTimers/Libraries/XMCLib/inc\xmc_gpio.h ****  * \par<b>Description:</b><br>
 168:D:/Arduino Projects/Youtube/XMC1400 blinking LED Without Timers/LEDblinkNoTimers/Libraries/XMCLib/inc\xmc_gpio.h ****  * \if XMC1
 169:D:/Arduino Projects/Youtube/XMC1400 blinking LED Without Timers/LEDblinkNoTimers/Libraries/XMCLib/inc\xmc_gpio.h ****  * Initializes input / output mode settings like, pull up / pull down devices,hysteresis, push pull
 170:D:/Arduino Projects/Youtube/XMC1400 blinking LED Without Timers/LEDblinkNoTimers/Libraries/XMCLib/inc\xmc_gpio.h ****  * Also configures alternate function outputs and clears hardware port control for a selected \a po
 171:D:/Arduino Projects/Youtube/XMC1400 blinking LED Without Timers/LEDblinkNoTimers/Libraries/XMCLib/inc\xmc_gpio.h ****  * \a config provides selected I/O settings. It configures hardware registers Pn_IOCR,Pn_OUT, Pn_OM
 172:D:/Arduino Projects/Youtube/XMC1400 blinking LED Without Timers/LEDblinkNoTimers/Libraries/XMCLib/inc\xmc_gpio.h ****  * \endif
 173:D:/Arduino Projects/Youtube/XMC1400 blinking LED Without Timers/LEDblinkNoTimers/Libraries/XMCLib/inc\xmc_gpio.h ****  * \if XMC4
 174:D:/Arduino Projects/Youtube/XMC1400 blinking LED Without Timers/LEDblinkNoTimers/Libraries/XMCLib/inc\xmc_gpio.h ****  * Initializes input / output mode settings like, pull up / pull down devices,push pull /open drain
 175:D:/Arduino Projects/Youtube/XMC1400 blinking LED Without Timers/LEDblinkNoTimers/Libraries/XMCLib/inc\xmc_gpio.h ****  * Also configures alternate function outputs and clears hardware port control for selected \a port
 176:D:/Arduino Projects/Youtube/XMC1400 blinking LED Without Timers/LEDblinkNoTimers/Libraries/XMCLib/inc\xmc_gpio.h ****  * It configures hardware registers Pn_IOCR,Pn_OUT,Pn_OMR,Pn_PDISC and Pn_PDR.\n
 177:D:/Arduino Projects/Youtube/XMC1400 blinking LED Without Timers/LEDblinkNoTimers/Libraries/XMCLib/inc\xmc_gpio.h ****  * \endif
 178:D:/Arduino Projects/Youtube/XMC1400 blinking LED Without Timers/LEDblinkNoTimers/Libraries/XMCLib/inc\xmc_gpio.h ****  *
 179:D:/Arduino Projects/Youtube/XMC1400 blinking LED Without Timers/LEDblinkNoTimers/Libraries/XMCLib/inc\xmc_gpio.h ****  * \par<b>Related APIs:</b><BR>
 180:D:/Arduino Projects/Youtube/XMC1400 blinking LED Without Timers/LEDblinkNoTimers/Libraries/XMCLib/inc\xmc_gpio.h ****  *  None
 181:D:/Arduino Projects/Youtube/XMC1400 blinking LED Without Timers/LEDblinkNoTimers/Libraries/XMCLib/inc\xmc_gpio.h ****  *
 182:D:/Arduino Projects/Youtube/XMC1400 blinking LED Without Timers/LEDblinkNoTimers/Libraries/XMCLib/inc\xmc_gpio.h ****  * \par<b>Note:</b><br>
 183:D:/Arduino Projects/Youtube/XMC1400 blinking LED Without Timers/LEDblinkNoTimers/Libraries/XMCLib/inc\xmc_gpio.h ****  * This API is called in definition of DAVE_init by code generation and therefore should not be exp
 184:D:/Arduino Projects/Youtube/XMC1400 blinking LED Without Timers/LEDblinkNoTimers/Libraries/XMCLib/inc\xmc_gpio.h ****  * for the normal operation. Use other APIs only after DAVE_init is called successfully (returns DA
 185:D:/Arduino Projects/Youtube/XMC1400 blinking LED Without Timers/LEDblinkNoTimers/Libraries/XMCLib/inc\xmc_gpio.h ****  *
 186:D:/Arduino Projects/Youtube/XMC1400 blinking LED Without Timers/LEDblinkNoTimers/Libraries/XMCLib/inc\xmc_gpio.h ****  *
 187:D:/Arduino Projects/Youtube/XMC1400 blinking LED Without Timers/LEDblinkNoTimers/Libraries/XMCLib/inc\xmc_gpio.h ****  */
 188:D:/Arduino Projects/Youtube/XMC1400 blinking LED Without Timers/LEDblinkNoTimers/Libraries/XMCLib/inc\xmc_gpio.h **** 
 189:D:/Arduino Projects/Youtube/XMC1400 blinking LED Without Timers/LEDblinkNoTimers/Libraries/XMCLib/inc\xmc_gpio.h **** 
 190:D:/Arduino Projects/Youtube/XMC1400 blinking LED Without Timers/LEDblinkNoTimers/Libraries/XMCLib/inc\xmc_gpio.h **** void XMC_GPIO_Init(XMC_GPIO_PORT_t *const port, const uint8_t pin, const XMC_GPIO_CONFIG_t *const c
 191:D:/Arduino Projects/Youtube/XMC1400 blinking LED Without Timers/LEDblinkNoTimers/Libraries/XMCLib/inc\xmc_gpio.h **** 
 192:D:/Arduino Projects/Youtube/XMC1400 blinking LED Without Timers/LEDblinkNoTimers/Libraries/XMCLib/inc\xmc_gpio.h **** /**
 193:D:/Arduino Projects/Youtube/XMC1400 blinking LED Without Timers/LEDblinkNoTimers/Libraries/XMCLib/inc\xmc_gpio.h ****  *
 194:D:/Arduino Projects/Youtube/XMC1400 blinking LED Without Timers/LEDblinkNoTimers/Libraries/XMCLib/inc\xmc_gpio.h ****  * @param  port	Constant pointer pointing to GPIO port, to access hardware register Pn_IOCR.
 195:D:/Arduino Projects/Youtube/XMC1400 blinking LED Without Timers/LEDblinkNoTimers/Libraries/XMCLib/inc\xmc_gpio.h ****  * @param  pin	Port pin number.
 196:D:/Arduino Projects/Youtube/XMC1400 blinking LED Without Timers/LEDblinkNoTimers/Libraries/XMCLib/inc\xmc_gpio.h ****  * @param  mode input / output functionality selection. Refer @ref XMC_GPIO_MODE_t for valid values
 197:D:/Arduino Projects/Youtube/XMC1400 blinking LED Without Timers/LEDblinkNoTimers/Libraries/XMCLib/inc\xmc_gpio.h ****  *
 198:D:/Arduino Projects/Youtube/XMC1400 blinking LED Without Timers/LEDblinkNoTimers/Libraries/XMCLib/inc\xmc_gpio.h ****  * @return None
 199:D:/Arduino Projects/Youtube/XMC1400 blinking LED Without Timers/LEDblinkNoTimers/Libraries/XMCLib/inc\xmc_gpio.h ****  *
 200:D:/Arduino Projects/Youtube/XMC1400 blinking LED Without Timers/LEDblinkNoTimers/Libraries/XMCLib/inc\xmc_gpio.h ****  * \par<b>Description:</b><br>
 201:D:/Arduino Projects/Youtube/XMC1400 blinking LED Without Timers/LEDblinkNoTimers/Libraries/XMCLib/inc\xmc_gpio.h ****  * Sets digital input and output driver functionality and characteristics of a GPIO port pin. It co
 202:D:/Arduino Projects/Youtube/XMC1400 blinking LED Without Timers/LEDblinkNoTimers/Libraries/XMCLib/inc\xmc_gpio.h ****  * registers Pn_IOCR. \a mode is initially configured during initialization in XMC_GPIO_Init(). Cal
 203:D:/Arduino Projects/Youtube/XMC1400 blinking LED Without Timers/LEDblinkNoTimers/Libraries/XMCLib/inc\xmc_gpio.h ****  * the port direction functionality as needed later in the program.
 204:D:/Arduino Projects/Youtube/XMC1400 blinking LED Without Timers/LEDblinkNoTimers/Libraries/XMCLib/inc\xmc_gpio.h ****  *
 205:D:/Arduino Projects/Youtube/XMC1400 blinking LED Without Timers/LEDblinkNoTimers/Libraries/XMCLib/inc\xmc_gpio.h ****  * \par<b>Related APIs:</b><BR>
 206:D:/Arduino Projects/Youtube/XMC1400 blinking LED Without Timers/LEDblinkNoTimers/Libraries/XMCLib/inc\xmc_gpio.h ****  *  None
 207:D:/Arduino Projects/Youtube/XMC1400 blinking LED Without Timers/LEDblinkNoTimers/Libraries/XMCLib/inc\xmc_gpio.h ****  *
 208:D:/Arduino Projects/Youtube/XMC1400 blinking LED Without Timers/LEDblinkNoTimers/Libraries/XMCLib/inc\xmc_gpio.h ****  */
 209:D:/Arduino Projects/Youtube/XMC1400 blinking LED Without Timers/LEDblinkNoTimers/Libraries/XMCLib/inc\xmc_gpio.h **** 
 210:D:/Arduino Projects/Youtube/XMC1400 blinking LED Without Timers/LEDblinkNoTimers/Libraries/XMCLib/inc\xmc_gpio.h **** void XMC_GPIO_SetMode(XMC_GPIO_PORT_t *const port, const uint8_t pin, const XMC_GPIO_MODE_t mode);
 211:D:/Arduino Projects/Youtube/XMC1400 blinking LED Without Timers/LEDblinkNoTimers/Libraries/XMCLib/inc\xmc_gpio.h **** 
 212:D:/Arduino Projects/Youtube/XMC1400 blinking LED Without Timers/LEDblinkNoTimers/Libraries/XMCLib/inc\xmc_gpio.h **** 
 213:D:/Arduino Projects/Youtube/XMC1400 blinking LED Without Timers/LEDblinkNoTimers/Libraries/XMCLib/inc\xmc_gpio.h **** /**
 214:D:/Arduino Projects/Youtube/XMC1400 blinking LED Without Timers/LEDblinkNoTimers/Libraries/XMCLib/inc\xmc_gpio.h ****  *
 215:D:/Arduino Projects/Youtube/XMC1400 blinking LED Without Timers/LEDblinkNoTimers/Libraries/XMCLib/inc\xmc_gpio.h ****  * @param  port	 Constant pointer pointing to GPIO port, to access hardware register Pn_OMR.
 216:D:/Arduino Projects/Youtube/XMC1400 blinking LED Without Timers/LEDblinkNoTimers/Libraries/XMCLib/inc\xmc_gpio.h ****  * @param  pin	 Port pin number.
 217:D:/Arduino Projects/Youtube/XMC1400 blinking LED Without Timers/LEDblinkNoTimers/Libraries/XMCLib/inc\xmc_gpio.h ****  * @param  level output level selection. Refer @ref XMC_GPIO_OUTPUT_LEVEL_t for valid values.
 218:D:/Arduino Projects/Youtube/XMC1400 blinking LED Without Timers/LEDblinkNoTimers/Libraries/XMCLib/inc\xmc_gpio.h ****  *
 219:D:/Arduino Projects/Youtube/XMC1400 blinking LED Without Timers/LEDblinkNoTimers/Libraries/XMCLib/inc\xmc_gpio.h ****  * @return None
 220:D:/Arduino Projects/Youtube/XMC1400 blinking LED Without Timers/LEDblinkNoTimers/Libraries/XMCLib/inc\xmc_gpio.h ****  *
 221:D:/Arduino Projects/Youtube/XMC1400 blinking LED Without Timers/LEDblinkNoTimers/Libraries/XMCLib/inc\xmc_gpio.h ****  * \par<b>Description:</b><br>
 222:D:/Arduino Projects/Youtube/XMC1400 blinking LED Without Timers/LEDblinkNoTimers/Libraries/XMCLib/inc\xmc_gpio.h ****  * Set port pin output level to high or low.It configures hardware registers Pn_OMR.\a level is ini
 223:D:/Arduino Projects/Youtube/XMC1400 blinking LED Without Timers/LEDblinkNoTimers/Libraries/XMCLib/inc\xmc_gpio.h ****  * configured during initialization in XMC_GPIO_Init(). Call this API to alter output level as need
 224:D:/Arduino Projects/Youtube/XMC1400 blinking LED Without Timers/LEDblinkNoTimers/Libraries/XMCLib/inc\xmc_gpio.h ****  *
 225:D:/Arduino Projects/Youtube/XMC1400 blinking LED Without Timers/LEDblinkNoTimers/Libraries/XMCLib/inc\xmc_gpio.h ****  * \par<b>Related APIs:</b><BR>
 226:D:/Arduino Projects/Youtube/XMC1400 blinking LED Without Timers/LEDblinkNoTimers/Libraries/XMCLib/inc\xmc_gpio.h ****  *  XMC_GPIO_SetOutputHigh(), XMC_GPIO_SetOutputLow().
 227:D:/Arduino Projects/Youtube/XMC1400 blinking LED Without Timers/LEDblinkNoTimers/Libraries/XMCLib/inc\xmc_gpio.h ****  *
 228:D:/Arduino Projects/Youtube/XMC1400 blinking LED Without Timers/LEDblinkNoTimers/Libraries/XMCLib/inc\xmc_gpio.h ****  * \par<b>Note:</b><br>
 229:D:/Arduino Projects/Youtube/XMC1400 blinking LED Without Timers/LEDblinkNoTimers/Libraries/XMCLib/inc\xmc_gpio.h ****  * Prior to this api, user has to configure port pin to output mode using XMC_GPIO_SetMode().
 230:D:/Arduino Projects/Youtube/XMC1400 blinking LED Without Timers/LEDblinkNoTimers/Libraries/XMCLib/inc\xmc_gpio.h ****  *
 231:D:/Arduino Projects/Youtube/XMC1400 blinking LED Without Timers/LEDblinkNoTimers/Libraries/XMCLib/inc\xmc_gpio.h ****  */
 232:D:/Arduino Projects/Youtube/XMC1400 blinking LED Without Timers/LEDblinkNoTimers/Libraries/XMCLib/inc\xmc_gpio.h **** 
 233:D:/Arduino Projects/Youtube/XMC1400 blinking LED Without Timers/LEDblinkNoTimers/Libraries/XMCLib/inc\xmc_gpio.h **** 
 234:D:/Arduino Projects/Youtube/XMC1400 blinking LED Without Timers/LEDblinkNoTimers/Libraries/XMCLib/inc\xmc_gpio.h **** __STATIC_INLINE void XMC_GPIO_SetOutputLevel(XMC_GPIO_PORT_t *const port, const uint8_t pin, const 
 235:D:/Arduino Projects/Youtube/XMC1400 blinking LED Without Timers/LEDblinkNoTimers/Libraries/XMCLib/inc\xmc_gpio.h **** {
 236:D:/Arduino Projects/Youtube/XMC1400 blinking LED Without Timers/LEDblinkNoTimers/Libraries/XMCLib/inc\xmc_gpio.h ****   XMC_ASSERT("XMC_GPIO_SetOutputLevel: Invalid port", XMC_GPIO_CHECK_OUTPUT_PORT(port));
 237:D:/Arduino Projects/Youtube/XMC1400 blinking LED Without Timers/LEDblinkNoTimers/Libraries/XMCLib/inc\xmc_gpio.h ****   XMC_ASSERT("XMC_GPIO_SetOutputLevel: Invalid output level", XMC_GPIO_CHECK_OUTPUT_LEVEL(level));
 238:D:/Arduino Projects/Youtube/XMC1400 blinking LED Without Timers/LEDblinkNoTimers/Libraries/XMCLib/inc\xmc_gpio.h **** 
 239:D:/Arduino Projects/Youtube/XMC1400 blinking LED Without Timers/LEDblinkNoTimers/Libraries/XMCLib/inc\xmc_gpio.h ****   port->OMR = (uint32_t)level << pin;
 240:D:/Arduino Projects/Youtube/XMC1400 blinking LED Without Timers/LEDblinkNoTimers/Libraries/XMCLib/inc\xmc_gpio.h **** }
 241:D:/Arduino Projects/Youtube/XMC1400 blinking LED Without Timers/LEDblinkNoTimers/Libraries/XMCLib/inc\xmc_gpio.h **** 
 242:D:/Arduino Projects/Youtube/XMC1400 blinking LED Without Timers/LEDblinkNoTimers/Libraries/XMCLib/inc\xmc_gpio.h **** 
 243:D:/Arduino Projects/Youtube/XMC1400 blinking LED Without Timers/LEDblinkNoTimers/Libraries/XMCLib/inc\xmc_gpio.h **** /**
 244:D:/Arduino Projects/Youtube/XMC1400 blinking LED Without Timers/LEDblinkNoTimers/Libraries/XMCLib/inc\xmc_gpio.h ****  * @param  port constant pointer pointing to GPIO port, to access hardware register Pn_OMR.
 245:D:/Arduino Projects/Youtube/XMC1400 blinking LED Without Timers/LEDblinkNoTimers/Libraries/XMCLib/inc\xmc_gpio.h ****  * @param  pin	Port pin number.
 246:D:/Arduino Projects/Youtube/XMC1400 blinking LED Without Timers/LEDblinkNoTimers/Libraries/XMCLib/inc\xmc_gpio.h ****  *
 247:D:/Arduino Projects/Youtube/XMC1400 blinking LED Without Timers/LEDblinkNoTimers/Libraries/XMCLib/inc\xmc_gpio.h ****  * @return None
 248:D:/Arduino Projects/Youtube/XMC1400 blinking LED Without Timers/LEDblinkNoTimers/Libraries/XMCLib/inc\xmc_gpio.h ****  *
 249:D:/Arduino Projects/Youtube/XMC1400 blinking LED Without Timers/LEDblinkNoTimers/Libraries/XMCLib/inc\xmc_gpio.h ****  * \par<b>Description:</b><br>
 250:D:/Arduino Projects/Youtube/XMC1400 blinking LED Without Timers/LEDblinkNoTimers/Libraries/XMCLib/inc\xmc_gpio.h ****  *  Sets port pin output to high. It configures hardware registers Pn_OMR.
 251:D:/Arduino Projects/Youtube/XMC1400 blinking LED Without Timers/LEDblinkNoTimers/Libraries/XMCLib/inc\xmc_gpio.h ****  *
 252:D:/Arduino Projects/Youtube/XMC1400 blinking LED Without Timers/LEDblinkNoTimers/Libraries/XMCLib/inc\xmc_gpio.h ****  *  \par<b>Related APIs:</b><BR>
 253:D:/Arduino Projects/Youtube/XMC1400 blinking LED Without Timers/LEDblinkNoTimers/Libraries/XMCLib/inc\xmc_gpio.h ****  *  XMC_GPIO_SetOutputLow()
 254:D:/Arduino Projects/Youtube/XMC1400 blinking LED Without Timers/LEDblinkNoTimers/Libraries/XMCLib/inc\xmc_gpio.h ****  *
 255:D:/Arduino Projects/Youtube/XMC1400 blinking LED Without Timers/LEDblinkNoTimers/Libraries/XMCLib/inc\xmc_gpio.h ****  * \par<b>Note:</b><br>
 256:D:/Arduino Projects/Youtube/XMC1400 blinking LED Without Timers/LEDblinkNoTimers/Libraries/XMCLib/inc\xmc_gpio.h ****  * Prior to this api, user has to configure port pin to output mode using XMC_GPIO_SetMode().\n
 257:D:/Arduino Projects/Youtube/XMC1400 blinking LED Without Timers/LEDblinkNoTimers/Libraries/XMCLib/inc\xmc_gpio.h ****  * Register Pn_OMR is virtual and does not contain any flip-flop. A read action delivers the value 
 258:D:/Arduino Projects/Youtube/XMC1400 blinking LED Without Timers/LEDblinkNoTimers/Libraries/XMCLib/inc\xmc_gpio.h ****  *
 259:D:/Arduino Projects/Youtube/XMC1400 blinking LED Without Timers/LEDblinkNoTimers/Libraries/XMCLib/inc\xmc_gpio.h ****  */
 260:D:/Arduino Projects/Youtube/XMC1400 blinking LED Without Timers/LEDblinkNoTimers/Libraries/XMCLib/inc\xmc_gpio.h **** 
 261:D:/Arduino Projects/Youtube/XMC1400 blinking LED Without Timers/LEDblinkNoTimers/Libraries/XMCLib/inc\xmc_gpio.h **** __STATIC_INLINE void XMC_GPIO_SetOutputHigh(XMC_GPIO_PORT_t *const port, const uint8_t pin)
 262:D:/Arduino Projects/Youtube/XMC1400 blinking LED Without Timers/LEDblinkNoTimers/Libraries/XMCLib/inc\xmc_gpio.h **** {
  25              	 .loc 1 262 0
  26              	 .cfi_startproc
  27 0000 80B5     	 push {r7,lr}
  28              	.LCFI0:
  29              	 .cfi_def_cfa_offset 8
  30              	 .cfi_offset 7,-8
  31              	 .cfi_offset 14,-4
  32 0002 82B0     	 sub sp,sp,#8
  33              	.LCFI1:
  34              	 .cfi_def_cfa_offset 16
  35 0004 00AF     	 add r7,sp,#0
  36              	.LCFI2:
  37              	 .cfi_def_cfa_register 7
  38 0006 7860     	 str r0,[r7,#4]
  39 0008 0A1C     	 mov r2,r1
  40 000a FB1C     	 add r3,r7,#3
  41 000c 1A70     	 strb r2,[r3]
 263:D:/Arduino Projects/Youtube/XMC1400 blinking LED Without Timers/LEDblinkNoTimers/Libraries/XMCLib/inc\xmc_gpio.h ****   XMC_ASSERT("XMC_GPIO_SetOutputHigh: Invalid port", XMC_GPIO_CHECK_OUTPUT_PORT(port));
 264:D:/Arduino Projects/Youtube/XMC1400 blinking LED Without Timers/LEDblinkNoTimers/Libraries/XMCLib/inc\xmc_gpio.h **** 
 265:D:/Arduino Projects/Youtube/XMC1400 blinking LED Without Timers/LEDblinkNoTimers/Libraries/XMCLib/inc\xmc_gpio.h ****   port->OMR = (uint32_t)0x1U << pin;
  42              	 .loc 1 265 0
  43 000e FB1C     	 add r3,r7,#3
  44 0010 1B78     	 ldrb r3,[r3]
  45 0012 0122     	 mov r2,#1
  46 0014 9A40     	 lsl r2,r2,r3
  47 0016 7B68     	 ldr r3,[r7,#4]
  48 0018 5A60     	 str r2,[r3,#4]
 266:D:/Arduino Projects/Youtube/XMC1400 blinking LED Without Timers/LEDblinkNoTimers/Libraries/XMCLib/inc\xmc_gpio.h **** }
  49              	 .loc 1 266 0
  50 001a BD46     	 mov sp,r7
  51 001c 02B0     	 add sp,sp,#8
  52              	 
  53 001e 80BD     	 pop {r7,pc}
  54              	 .cfi_endproc
  55              	.LFE44:
  57              	 .section .text.XMC_GPIO_SetOutputLow,"ax",%progbits
  58              	 .align 2
  59              	 .code 16
  60              	 .thumb_func
  62              	XMC_GPIO_SetOutputLow:
  63              	.LFB45:
 267:D:/Arduino Projects/Youtube/XMC1400 blinking LED Without Timers/LEDblinkNoTimers/Libraries/XMCLib/inc\xmc_gpio.h **** 
 268:D:/Arduino Projects/Youtube/XMC1400 blinking LED Without Timers/LEDblinkNoTimers/Libraries/XMCLib/inc\xmc_gpio.h **** /**
 269:D:/Arduino Projects/Youtube/XMC1400 blinking LED Without Timers/LEDblinkNoTimers/Libraries/XMCLib/inc\xmc_gpio.h ****  *
 270:D:/Arduino Projects/Youtube/XMC1400 blinking LED Without Timers/LEDblinkNoTimers/Libraries/XMCLib/inc\xmc_gpio.h ****  * @param  port	constant pointer pointing to GPIO port, to access hardware register Pn_OMR.
 271:D:/Arduino Projects/Youtube/XMC1400 blinking LED Without Timers/LEDblinkNoTimers/Libraries/XMCLib/inc\xmc_gpio.h ****  * @param  pin	port pin number.
 272:D:/Arduino Projects/Youtube/XMC1400 blinking LED Without Timers/LEDblinkNoTimers/Libraries/XMCLib/inc\xmc_gpio.h ****  *
 273:D:/Arduino Projects/Youtube/XMC1400 blinking LED Without Timers/LEDblinkNoTimers/Libraries/XMCLib/inc\xmc_gpio.h ****  * @return  None
 274:D:/Arduino Projects/Youtube/XMC1400 blinking LED Without Timers/LEDblinkNoTimers/Libraries/XMCLib/inc\xmc_gpio.h ****  *
 275:D:/Arduino Projects/Youtube/XMC1400 blinking LED Without Timers/LEDblinkNoTimers/Libraries/XMCLib/inc\xmc_gpio.h ****  *\par<b>Description:</b><br>
 276:D:/Arduino Projects/Youtube/XMC1400 blinking LED Without Timers/LEDblinkNoTimers/Libraries/XMCLib/inc\xmc_gpio.h ****  * Sets port pin output to low. It configures hardware registers Pn_OMR.\n
 277:D:/Arduino Projects/Youtube/XMC1400 blinking LED Without Timers/LEDblinkNoTimers/Libraries/XMCLib/inc\xmc_gpio.h ****  *
 278:D:/Arduino Projects/Youtube/XMC1400 blinking LED Without Timers/LEDblinkNoTimers/Libraries/XMCLib/inc\xmc_gpio.h ****  * \par<b>Related APIs:</b><BR>>
 279:D:/Arduino Projects/Youtube/XMC1400 blinking LED Without Timers/LEDblinkNoTimers/Libraries/XMCLib/inc\xmc_gpio.h ****  * XMC_GPIO_SetOutputHigh()
 280:D:/Arduino Projects/Youtube/XMC1400 blinking LED Without Timers/LEDblinkNoTimers/Libraries/XMCLib/inc\xmc_gpio.h ****  *
 281:D:/Arduino Projects/Youtube/XMC1400 blinking LED Without Timers/LEDblinkNoTimers/Libraries/XMCLib/inc\xmc_gpio.h ****  *\par<b>Note:</b><br>
 282:D:/Arduino Projects/Youtube/XMC1400 blinking LED Without Timers/LEDblinkNoTimers/Libraries/XMCLib/inc\xmc_gpio.h ****  * Prior to this api, user has to configure port pin to output mode using XMC_GPIO_SetMode().
 283:D:/Arduino Projects/Youtube/XMC1400 blinking LED Without Timers/LEDblinkNoTimers/Libraries/XMCLib/inc\xmc_gpio.h ****  * Register Pn_OMR is virtual and does not contain any flip-flop. A read action delivers the value 
 284:D:/Arduino Projects/Youtube/XMC1400 blinking LED Without Timers/LEDblinkNoTimers/Libraries/XMCLib/inc\xmc_gpio.h ****  *
 285:D:/Arduino Projects/Youtube/XMC1400 blinking LED Without Timers/LEDblinkNoTimers/Libraries/XMCLib/inc\xmc_gpio.h ****  */
 286:D:/Arduino Projects/Youtube/XMC1400 blinking LED Without Timers/LEDblinkNoTimers/Libraries/XMCLib/inc\xmc_gpio.h **** 
 287:D:/Arduino Projects/Youtube/XMC1400 blinking LED Without Timers/LEDblinkNoTimers/Libraries/XMCLib/inc\xmc_gpio.h **** __STATIC_INLINE void XMC_GPIO_SetOutputLow(XMC_GPIO_PORT_t *const port, const uint8_t pin)
 288:D:/Arduino Projects/Youtube/XMC1400 blinking LED Without Timers/LEDblinkNoTimers/Libraries/XMCLib/inc\xmc_gpio.h **** {
  64              	 .loc 1 288 0
  65              	 .cfi_startproc
  66 0000 80B5     	 push {r7,lr}
  67              	.LCFI3:
  68              	 .cfi_def_cfa_offset 8
  69              	 .cfi_offset 7,-8
  70              	 .cfi_offset 14,-4
  71 0002 82B0     	 sub sp,sp,#8
  72              	.LCFI4:
  73              	 .cfi_def_cfa_offset 16
  74 0004 00AF     	 add r7,sp,#0
  75              	.LCFI5:
  76              	 .cfi_def_cfa_register 7
  77 0006 7860     	 str r0,[r7,#4]
  78 0008 0A1C     	 mov r2,r1
  79 000a FB1C     	 add r3,r7,#3
  80 000c 1A70     	 strb r2,[r3]
 289:D:/Arduino Projects/Youtube/XMC1400 blinking LED Without Timers/LEDblinkNoTimers/Libraries/XMCLib/inc\xmc_gpio.h ****   XMC_ASSERT("XMC_GPIO_SetOutputLow: Invalid port", XMC_GPIO_CHECK_OUTPUT_PORT(port));
 290:D:/Arduino Projects/Youtube/XMC1400 blinking LED Without Timers/LEDblinkNoTimers/Libraries/XMCLib/inc\xmc_gpio.h **** 
 291:D:/Arduino Projects/Youtube/XMC1400 blinking LED Without Timers/LEDblinkNoTimers/Libraries/XMCLib/inc\xmc_gpio.h ****   port->OMR = 0x10000U << pin;
  81              	 .loc 1 291 0
  82 000e FB1C     	 add r3,r7,#3
  83 0010 1B78     	 ldrb r3,[r3]
  84 0012 8022     	 mov r2,#128
  85 0014 5202     	 lsl r2,r2,#9
  86 0016 9A40     	 lsl r2,r2,r3
  87 0018 7B68     	 ldr r3,[r7,#4]
  88 001a 5A60     	 str r2,[r3,#4]
 292:D:/Arduino Projects/Youtube/XMC1400 blinking LED Without Timers/LEDblinkNoTimers/Libraries/XMCLib/inc\xmc_gpio.h **** }
  89              	 .loc 1 292 0
  90 001c BD46     	 mov sp,r7
  91 001e 02B0     	 add sp,sp,#8
  92              	 
  93 0020 80BD     	 pop {r7,pc}
  94              	 .cfi_endproc
  95              	.LFE45:
  97 0022 C046     	 .section .text.DIGITAL_IO_SetOutputHigh,"ax",%progbits
  98              	 .align 2
  99              	 .code 16
 100              	 .thumb_func
 102              	DIGITAL_IO_SetOutputHigh:
 103              	.LFB52:
 104              	 .file 2 "D:/Arduino Projects/Youtube/XMC1400 blinking LED Without Timers/LEDblinkNoTimers/Dave/Generated/DIGITAL_IO/digital_io.h"
   1:D:/Arduino Projects/Youtube/XMC1400 blinking LED Without Timers/LEDblinkNoTimers/Dave/Generated/DIGITAL_IO\digital_io.h **** /*
   2:D:/Arduino Projects/Youtube/XMC1400 blinking LED Without Timers/LEDblinkNoTimers/Dave/Generated/DIGITAL_IO\digital_io.h ****  *
   3:D:/Arduino Projects/Youtube/XMC1400 blinking LED Without Timers/LEDblinkNoTimers/Dave/Generated/DIGITAL_IO\digital_io.h ****  * @file digital_io.h
   4:D:/Arduino Projects/Youtube/XMC1400 blinking LED Without Timers/LEDblinkNoTimers/Dave/Generated/DIGITAL_IO\digital_io.h ****  * @date 2021-01-08
   5:D:/Arduino Projects/Youtube/XMC1400 blinking LED Without Timers/LEDblinkNoTimers/Dave/Generated/DIGITAL_IO\digital_io.h ****  *
   6:D:/Arduino Projects/Youtube/XMC1400 blinking LED Without Timers/LEDblinkNoTimers/Dave/Generated/DIGITAL_IO\digital_io.h ****  * NOTE:
   7:D:/Arduino Projects/Youtube/XMC1400 blinking LED Without Timers/LEDblinkNoTimers/Dave/Generated/DIGITAL_IO\digital_io.h ****  * This file is generated by DAVE. Any manual modification done to this file will be lost when the 
   8:D:/Arduino Projects/Youtube/XMC1400 blinking LED Without Timers/LEDblinkNoTimers/Dave/Generated/DIGITAL_IO\digital_io.h ****  *
   9:D:/Arduino Projects/Youtube/XMC1400 blinking LED Without Timers/LEDblinkNoTimers/Dave/Generated/DIGITAL_IO\digital_io.h ****  * @cond
  10:D:/Arduino Projects/Youtube/XMC1400 blinking LED Without Timers/LEDblinkNoTimers/Dave/Generated/DIGITAL_IO\digital_io.h ****  **************************************************************************************************
  11:D:/Arduino Projects/Youtube/XMC1400 blinking LED Without Timers/LEDblinkNoTimers/Dave/Generated/DIGITAL_IO\digital_io.h ****  * DIGITAL_IO v4.0.18 - The DIGITAL_IO APP is used to configure a port pin as digital Input/Output.
  12:D:/Arduino Projects/Youtube/XMC1400 blinking LED Without Timers/LEDblinkNoTimers/Dave/Generated/DIGITAL_IO\digital_io.h ****  *
  13:D:/Arduino Projects/Youtube/XMC1400 blinking LED Without Timers/LEDblinkNoTimers/Dave/Generated/DIGITAL_IO\digital_io.h ****  * Copyright (c) 2015-2020, Infineon Technologies AG
  14:D:/Arduino Projects/Youtube/XMC1400 blinking LED Without Timers/LEDblinkNoTimers/Dave/Generated/DIGITAL_IO\digital_io.h ****  * All rights reserved.
  15:D:/Arduino Projects/Youtube/XMC1400 blinking LED Without Timers/LEDblinkNoTimers/Dave/Generated/DIGITAL_IO\digital_io.h ****  *
  16:D:/Arduino Projects/Youtube/XMC1400 blinking LED Without Timers/LEDblinkNoTimers/Dave/Generated/DIGITAL_IO\digital_io.h ****  * Redistribution and use in source and binary forms, with or without modification,are permitted pr
  17:D:/Arduino Projects/Youtube/XMC1400 blinking LED Without Timers/LEDblinkNoTimers/Dave/Generated/DIGITAL_IO\digital_io.h ****  * following conditions are met:
  18:D:/Arduino Projects/Youtube/XMC1400 blinking LED Without Timers/LEDblinkNoTimers/Dave/Generated/DIGITAL_IO\digital_io.h ****  *
  19:D:/Arduino Projects/Youtube/XMC1400 blinking LED Without Timers/LEDblinkNoTimers/Dave/Generated/DIGITAL_IO\digital_io.h ****  *   Redistributions of source code must retain the above copyright notice, this list of conditions
  20:D:/Arduino Projects/Youtube/XMC1400 blinking LED Without Timers/LEDblinkNoTimers/Dave/Generated/DIGITAL_IO\digital_io.h ****  *   disclaimer.
  21:D:/Arduino Projects/Youtube/XMC1400 blinking LED Without Timers/LEDblinkNoTimers/Dave/Generated/DIGITAL_IO\digital_io.h ****  *
  22:D:/Arduino Projects/Youtube/XMC1400 blinking LED Without Timers/LEDblinkNoTimers/Dave/Generated/DIGITAL_IO\digital_io.h ****  *   Redistributions in binary form must reproduce the above copyright notice, this list of conditi
  23:D:/Arduino Projects/Youtube/XMC1400 blinking LED Without Timers/LEDblinkNoTimers/Dave/Generated/DIGITAL_IO\digital_io.h ****  *   following disclaimer in the documentation and/or other materials provided with the distributio
  24:D:/Arduino Projects/Youtube/XMC1400 blinking LED Without Timers/LEDblinkNoTimers/Dave/Generated/DIGITAL_IO\digital_io.h ****  *
  25:D:/Arduino Projects/Youtube/XMC1400 blinking LED Without Timers/LEDblinkNoTimers/Dave/Generated/DIGITAL_IO\digital_io.h ****  *   Neither the name of the copyright holders nor the names of its contributors may be used to end
  26:D:/Arduino Projects/Youtube/XMC1400 blinking LED Without Timers/LEDblinkNoTimers/Dave/Generated/DIGITAL_IO\digital_io.h ****  *   products derived from this software without specific prior written permission.
  27:D:/Arduino Projects/Youtube/XMC1400 blinking LED Without Timers/LEDblinkNoTimers/Dave/Generated/DIGITAL_IO\digital_io.h ****  *
  28:D:/Arduino Projects/Youtube/XMC1400 blinking LED Without Timers/LEDblinkNoTimers/Dave/Generated/DIGITAL_IO\digital_io.h ****  * THIS SOFTWARE IS PROVIDED BY THE COPYRIGHT HOLDERS AND CONTRIBUTORS "AS IS" AND ANY EXPRESS OR I
  29:D:/Arduino Projects/Youtube/XMC1400 blinking LED Without Timers/LEDblinkNoTimers/Dave/Generated/DIGITAL_IO\digital_io.h ****  * INCLUDING, BUT NOT LIMITED TO, THE IMPLIED WARRANTIES OF MERCHANTABILITY AND FITNESS FOR A PARTI
  30:D:/Arduino Projects/Youtube/XMC1400 blinking LED Without Timers/LEDblinkNoTimers/Dave/Generated/DIGITAL_IO\digital_io.h ****  * DISCLAIMED. IN NO EVENT SHALL THE COPYRIGHT HOLDER OR CONTRIBUTORS BE LIABLE  FOR ANY DIRECT, IN
  31:D:/Arduino Projects/Youtube/XMC1400 blinking LED Without Timers/LEDblinkNoTimers/Dave/Generated/DIGITAL_IO\digital_io.h ****  * SPECIAL, EXEMPLARY, OR CONSEQUENTIAL DAMAGES (INCLUDING, BUT NOT LIMITED TO, PROCUREMENT OF SUBS
  32:D:/Arduino Projects/Youtube/XMC1400 blinking LED Without Timers/LEDblinkNoTimers/Dave/Generated/DIGITAL_IO\digital_io.h ****  * SERVICES; LOSS OF USE, DATA, OR PROFITS; OR BUSINESS INTERRUPTION) HOWEVER CAUSED AND ON ANY THE
  33:D:/Arduino Projects/Youtube/XMC1400 blinking LED Without Timers/LEDblinkNoTimers/Dave/Generated/DIGITAL_IO\digital_io.h ****  * WHETHER IN CONTRACT, STRICT LIABILITY,OR TORT (INCLUDING NEGLIGENCE OR OTHERWISE) ARISING IN ANY
  34:D:/Arduino Projects/Youtube/XMC1400 blinking LED Without Timers/LEDblinkNoTimers/Dave/Generated/DIGITAL_IO\digital_io.h ****  * USE OF THIS SOFTWARE, EVEN IF ADVISED OF THE POSSIBILITY OF SUCH DAMAGE.
  35:D:/Arduino Projects/Youtube/XMC1400 blinking LED Without Timers/LEDblinkNoTimers/Dave/Generated/DIGITAL_IO\digital_io.h ****  *
  36:D:/Arduino Projects/Youtube/XMC1400 blinking LED Without Timers/LEDblinkNoTimers/Dave/Generated/DIGITAL_IO\digital_io.h ****  * To improve the quality of the software, users are encouraged to share modifications, enhancement
  37:D:/Arduino Projects/Youtube/XMC1400 blinking LED Without Timers/LEDblinkNoTimers/Dave/Generated/DIGITAL_IO\digital_io.h ****  * with Infineon Technologies AG (dave@infineon.com).
  38:D:/Arduino Projects/Youtube/XMC1400 blinking LED Without Timers/LEDblinkNoTimers/Dave/Generated/DIGITAL_IO\digital_io.h ****  **************************************************************************************************
  39:D:/Arduino Projects/Youtube/XMC1400 blinking LED Without Timers/LEDblinkNoTimers/Dave/Generated/DIGITAL_IO\digital_io.h ****  *
  40:D:/Arduino Projects/Youtube/XMC1400 blinking LED Without Timers/LEDblinkNoTimers/Dave/Generated/DIGITAL_IO\digital_io.h ****  * Change History
  41:D:/Arduino Projects/Youtube/XMC1400 blinking LED Without Timers/LEDblinkNoTimers/Dave/Generated/DIGITAL_IO\digital_io.h ****  * --------------
  42:D:/Arduino Projects/Youtube/XMC1400 blinking LED Without Timers/LEDblinkNoTimers/Dave/Generated/DIGITAL_IO\digital_io.h ****  *
  43:D:/Arduino Projects/Youtube/XMC1400 blinking LED Without Timers/LEDblinkNoTimers/Dave/Generated/DIGITAL_IO\digital_io.h ****  * 2015-02-16
  44:D:/Arduino Projects/Youtube/XMC1400 blinking LED Without Timers/LEDblinkNoTimers/Dave/Generated/DIGITAL_IO\digital_io.h ****  *     - Initial version
  45:D:/Arduino Projects/Youtube/XMC1400 blinking LED Without Timers/LEDblinkNoTimers/Dave/Generated/DIGITAL_IO\digital_io.h ****  *
  46:D:/Arduino Projects/Youtube/XMC1400 blinking LED Without Timers/LEDblinkNoTimers/Dave/Generated/DIGITAL_IO\digital_io.h ****  * 2015-04-22
  47:D:/Arduino Projects/Youtube/XMC1400 blinking LED Without Timers/LEDblinkNoTimers/Dave/Generated/DIGITAL_IO\digital_io.h ****  *     - XMC_ASSERT is added in static inline functions.<br>
  48:D:/Arduino Projects/Youtube/XMC1400 blinking LED Without Timers/LEDblinkNoTimers/Dave/Generated/DIGITAL_IO\digital_io.h ****  *
  49:D:/Arduino Projects/Youtube/XMC1400 blinking LED Without Timers/LEDblinkNoTimers/Dave/Generated/DIGITAL_IO\digital_io.h ****  * 2015-06-20
  50:D:/Arduino Projects/Youtube/XMC1400 blinking LED Without Timers/LEDblinkNoTimers/Dave/Generated/DIGITAL_IO\digital_io.h ****  *     - Version check added for XMCLib dependency.<br>
  51:D:/Arduino Projects/Youtube/XMC1400 blinking LED Without Timers/LEDblinkNoTimers/Dave/Generated/DIGITAL_IO\digital_io.h ****  *
  52:D:/Arduino Projects/Youtube/XMC1400 blinking LED Without Timers/LEDblinkNoTimers/Dave/Generated/DIGITAL_IO\digital_io.h ****  * 2015-12-22
  53:D:/Arduino Projects/Youtube/XMC1400 blinking LED Without Timers/LEDblinkNoTimers/Dave/Generated/DIGITAL_IO\digital_io.h ****  *     - Added hardware controlled IO feature.
  54:D:/Arduino Projects/Youtube/XMC1400 blinking LED Without Timers/LEDblinkNoTimers/Dave/Generated/DIGITAL_IO\digital_io.h ****  * 2016-07-08:
  55:D:/Arduino Projects/Youtube/XMC1400 blinking LED Without Timers/LEDblinkNoTimers/Dave/Generated/DIGITAL_IO\digital_io.h ****  *     - Fixed incorrect case for an included header.<br>
  56:D:/Arduino Projects/Youtube/XMC1400 blinking LED Without Timers/LEDblinkNoTimers/Dave/Generated/DIGITAL_IO\digital_io.h ****  * 2021-01-08:
  57:D:/Arduino Projects/Youtube/XMC1400 blinking LED Without Timers/LEDblinkNoTimers/Dave/Generated/DIGITAL_IO\digital_io.h ****  *     - Modified check for minimum XMCLib version
  58:D:/Arduino Projects/Youtube/XMC1400 blinking LED Without Timers/LEDblinkNoTimers/Dave/Generated/DIGITAL_IO\digital_io.h ****  *
  59:D:/Arduino Projects/Youtube/XMC1400 blinking LED Without Timers/LEDblinkNoTimers/Dave/Generated/DIGITAL_IO\digital_io.h ****  * @endcond
  60:D:/Arduino Projects/Youtube/XMC1400 blinking LED Without Timers/LEDblinkNoTimers/Dave/Generated/DIGITAL_IO\digital_io.h ****  *
  61:D:/Arduino Projects/Youtube/XMC1400 blinking LED Without Timers/LEDblinkNoTimers/Dave/Generated/DIGITAL_IO\digital_io.h ****  */
  62:D:/Arduino Projects/Youtube/XMC1400 blinking LED Without Timers/LEDblinkNoTimers/Dave/Generated/DIGITAL_IO\digital_io.h **** 
  63:D:/Arduino Projects/Youtube/XMC1400 blinking LED Without Timers/LEDblinkNoTimers/Dave/Generated/DIGITAL_IO\digital_io.h **** /**************************************************************************************************
  64:D:/Arduino Projects/Youtube/XMC1400 blinking LED Without Timers/LEDblinkNoTimers/Dave/Generated/DIGITAL_IO\digital_io.h ****  * HEADER FILES
  65:D:/Arduino Projects/Youtube/XMC1400 blinking LED Without Timers/LEDblinkNoTimers/Dave/Generated/DIGITAL_IO\digital_io.h ****  **************************************************************************************************
  66:D:/Arduino Projects/Youtube/XMC1400 blinking LED Without Timers/LEDblinkNoTimers/Dave/Generated/DIGITAL_IO\digital_io.h **** 
  67:D:/Arduino Projects/Youtube/XMC1400 blinking LED Without Timers/LEDblinkNoTimers/Dave/Generated/DIGITAL_IO\digital_io.h **** #ifndef DIGITAL_IO_H
  68:D:/Arduino Projects/Youtube/XMC1400 blinking LED Without Timers/LEDblinkNoTimers/Dave/Generated/DIGITAL_IO\digital_io.h **** #define DIGITAL_IO_H
  69:D:/Arduino Projects/Youtube/XMC1400 blinking LED Without Timers/LEDblinkNoTimers/Dave/Generated/DIGITAL_IO\digital_io.h **** 
  70:D:/Arduino Projects/Youtube/XMC1400 blinking LED Without Timers/LEDblinkNoTimers/Dave/Generated/DIGITAL_IO\digital_io.h **** #include "xmc_gpio.h"
  71:D:/Arduino Projects/Youtube/XMC1400 blinking LED Without Timers/LEDblinkNoTimers/Dave/Generated/DIGITAL_IO\digital_io.h **** #include "DAVE_Common.h"
  72:D:/Arduino Projects/Youtube/XMC1400 blinking LED Without Timers/LEDblinkNoTimers/Dave/Generated/DIGITAL_IO\digital_io.h **** #include "digital_io_conf.h"
  73:D:/Arduino Projects/Youtube/XMC1400 blinking LED Without Timers/LEDblinkNoTimers/Dave/Generated/DIGITAL_IO\digital_io.h **** 
  74:D:/Arduino Projects/Youtube/XMC1400 blinking LED Without Timers/LEDblinkNoTimers/Dave/Generated/DIGITAL_IO\digital_io.h **** /**************************************************************************************************
  75:D:/Arduino Projects/Youtube/XMC1400 blinking LED Without Timers/LEDblinkNoTimers/Dave/Generated/DIGITAL_IO\digital_io.h ****  * MACROS
  76:D:/Arduino Projects/Youtube/XMC1400 blinking LED Without Timers/LEDblinkNoTimers/Dave/Generated/DIGITAL_IO\digital_io.h ****  **************************************************************************************************
  77:D:/Arduino Projects/Youtube/XMC1400 blinking LED Without Timers/LEDblinkNoTimers/Dave/Generated/DIGITAL_IO\digital_io.h **** #define DIGITAL_IO_XMC_LIB_MAJOR_VERSION 2
  78:D:/Arduino Projects/Youtube/XMC1400 blinking LED Without Timers/LEDblinkNoTimers/Dave/Generated/DIGITAL_IO\digital_io.h **** #define DIGITAL_IO_XMC_LIB_MINOR_VERSION 0
  79:D:/Arduino Projects/Youtube/XMC1400 blinking LED Without Timers/LEDblinkNoTimers/Dave/Generated/DIGITAL_IO\digital_io.h **** #define DIGITAL_IO_XMC_LIB_PATCH_VERSION 0
  80:D:/Arduino Projects/Youtube/XMC1400 blinking LED Without Timers/LEDblinkNoTimers/Dave/Generated/DIGITAL_IO\digital_io.h **** 
  81:D:/Arduino Projects/Youtube/XMC1400 blinking LED Without Timers/LEDblinkNoTimers/Dave/Generated/DIGITAL_IO\digital_io.h **** #if !((XMC_LIB_MAJOR_VERSION > DIGITAL_IO_XMC_LIB_MAJOR_VERSION) ||\
  82:D:/Arduino Projects/Youtube/XMC1400 blinking LED Without Timers/LEDblinkNoTimers/Dave/Generated/DIGITAL_IO\digital_io.h ****       ((XMC_LIB_MAJOR_VERSION == DIGITAL_IO_XMC_LIB_MAJOR_VERSION) && (XMC_LIB_MINOR_VERSION > DIGI
  83:D:/Arduino Projects/Youtube/XMC1400 blinking LED Without Timers/LEDblinkNoTimers/Dave/Generated/DIGITAL_IO\digital_io.h ****       ((XMC_LIB_MAJOR_VERSION == DIGITAL_IO_XMC_LIB_MAJOR_VERSION) && (XMC_LIB_MINOR_VERSION == DIG
  84:D:/Arduino Projects/Youtube/XMC1400 blinking LED Without Timers/LEDblinkNoTimers/Dave/Generated/DIGITAL_IO\digital_io.h **** #error "DIGITAL_IO requires XMC Peripheral Library v2.0.0 or higher"
  85:D:/Arduino Projects/Youtube/XMC1400 blinking LED Without Timers/LEDblinkNoTimers/Dave/Generated/DIGITAL_IO\digital_io.h **** #endif
  86:D:/Arduino Projects/Youtube/XMC1400 blinking LED Without Timers/LEDblinkNoTimers/Dave/Generated/DIGITAL_IO\digital_io.h **** 
  87:D:/Arduino Projects/Youtube/XMC1400 blinking LED Without Timers/LEDblinkNoTimers/Dave/Generated/DIGITAL_IO\digital_io.h ****  /*************************************************************************************************
  88:D:/Arduino Projects/Youtube/XMC1400 blinking LED Without Timers/LEDblinkNoTimers/Dave/Generated/DIGITAL_IO\digital_io.h ****  * ENUMS
  89:D:/Arduino Projects/Youtube/XMC1400 blinking LED Without Timers/LEDblinkNoTimers/Dave/Generated/DIGITAL_IO\digital_io.h ****  **************************************************************************************************
  90:D:/Arduino Projects/Youtube/XMC1400 blinking LED Without Timers/LEDblinkNoTimers/Dave/Generated/DIGITAL_IO\digital_io.h **** 
  91:D:/Arduino Projects/Youtube/XMC1400 blinking LED Without Timers/LEDblinkNoTimers/Dave/Generated/DIGITAL_IO\digital_io.h **** /**
  92:D:/Arduino Projects/Youtube/XMC1400 blinking LED Without Timers/LEDblinkNoTimers/Dave/Generated/DIGITAL_IO\digital_io.h **** * @ingroup DIGITAL_IO_enumerations
  93:D:/Arduino Projects/Youtube/XMC1400 blinking LED Without Timers/LEDblinkNoTimers/Dave/Generated/DIGITAL_IO\digital_io.h **** * @{
  94:D:/Arduino Projects/Youtube/XMC1400 blinking LED Without Timers/LEDblinkNoTimers/Dave/Generated/DIGITAL_IO\digital_io.h **** */
  95:D:/Arduino Projects/Youtube/XMC1400 blinking LED Without Timers/LEDblinkNoTimers/Dave/Generated/DIGITAL_IO\digital_io.h **** 
  96:D:/Arduino Projects/Youtube/XMC1400 blinking LED Without Timers/LEDblinkNoTimers/Dave/Generated/DIGITAL_IO\digital_io.h **** /**
  97:D:/Arduino Projects/Youtube/XMC1400 blinking LED Without Timers/LEDblinkNoTimers/Dave/Generated/DIGITAL_IO\digital_io.h **** * @brief Initialization status of DIGITAL_IO APP.
  98:D:/Arduino Projects/Youtube/XMC1400 blinking LED Without Timers/LEDblinkNoTimers/Dave/Generated/DIGITAL_IO\digital_io.h **** */
  99:D:/Arduino Projects/Youtube/XMC1400 blinking LED Without Timers/LEDblinkNoTimers/Dave/Generated/DIGITAL_IO\digital_io.h **** typedef enum DIGITAL_IO_STATUS
 100:D:/Arduino Projects/Youtube/XMC1400 blinking LED Without Timers/LEDblinkNoTimers/Dave/Generated/DIGITAL_IO\digital_io.h **** {
 101:D:/Arduino Projects/Youtube/XMC1400 blinking LED Without Timers/LEDblinkNoTimers/Dave/Generated/DIGITAL_IO\digital_io.h ****   DIGITAL_IO_STATUS_OK = 0U,/**< 0=Status OK */
 102:D:/Arduino Projects/Youtube/XMC1400 blinking LED Without Timers/LEDblinkNoTimers/Dave/Generated/DIGITAL_IO\digital_io.h ****   DIGITAL_IO_STATUS_FAILURE = 1U/**< 1=Status Failed */
 103:D:/Arduino Projects/Youtube/XMC1400 blinking LED Without Timers/LEDblinkNoTimers/Dave/Generated/DIGITAL_IO\digital_io.h **** } DIGITAL_IO_STATUS_t;
 104:D:/Arduino Projects/Youtube/XMC1400 blinking LED Without Timers/LEDblinkNoTimers/Dave/Generated/DIGITAL_IO\digital_io.h **** 
 105:D:/Arduino Projects/Youtube/XMC1400 blinking LED Without Timers/LEDblinkNoTimers/Dave/Generated/DIGITAL_IO\digital_io.h **** /**
 106:D:/Arduino Projects/Youtube/XMC1400 blinking LED Without Timers/LEDblinkNoTimers/Dave/Generated/DIGITAL_IO\digital_io.h **** * @}
 107:D:/Arduino Projects/Youtube/XMC1400 blinking LED Without Timers/LEDblinkNoTimers/Dave/Generated/DIGITAL_IO\digital_io.h **** */
 108:D:/Arduino Projects/Youtube/XMC1400 blinking LED Without Timers/LEDblinkNoTimers/Dave/Generated/DIGITAL_IO\digital_io.h **** 
 109:D:/Arduino Projects/Youtube/XMC1400 blinking LED Without Timers/LEDblinkNoTimers/Dave/Generated/DIGITAL_IO\digital_io.h **** /**************************************************************************************************
 110:D:/Arduino Projects/Youtube/XMC1400 blinking LED Without Timers/LEDblinkNoTimers/Dave/Generated/DIGITAL_IO\digital_io.h ****  * DATA STRUCTURES
 111:D:/Arduino Projects/Youtube/XMC1400 blinking LED Without Timers/LEDblinkNoTimers/Dave/Generated/DIGITAL_IO\digital_io.h ****  **************************************************************************************************
 112:D:/Arduino Projects/Youtube/XMC1400 blinking LED Without Timers/LEDblinkNoTimers/Dave/Generated/DIGITAL_IO\digital_io.h **** /**
 113:D:/Arduino Projects/Youtube/XMC1400 blinking LED Without Timers/LEDblinkNoTimers/Dave/Generated/DIGITAL_IO\digital_io.h **** * @ingroup DIGITAL_IO_datastructures
 114:D:/Arduino Projects/Youtube/XMC1400 blinking LED Without Timers/LEDblinkNoTimers/Dave/Generated/DIGITAL_IO\digital_io.h **** * @{
 115:D:/Arduino Projects/Youtube/XMC1400 blinking LED Without Timers/LEDblinkNoTimers/Dave/Generated/DIGITAL_IO\digital_io.h **** */
 116:D:/Arduino Projects/Youtube/XMC1400 blinking LED Without Timers/LEDblinkNoTimers/Dave/Generated/DIGITAL_IO\digital_io.h **** 
 117:D:/Arduino Projects/Youtube/XMC1400 blinking LED Without Timers/LEDblinkNoTimers/Dave/Generated/DIGITAL_IO\digital_io.h **** /**
 118:D:/Arduino Projects/Youtube/XMC1400 blinking LED Without Timers/LEDblinkNoTimers/Dave/Generated/DIGITAL_IO\digital_io.h **** * @brief Initialization data structure of DIGITAL_IO APP
 119:D:/Arduino Projects/Youtube/XMC1400 blinking LED Without Timers/LEDblinkNoTimers/Dave/Generated/DIGITAL_IO\digital_io.h **** */
 120:D:/Arduino Projects/Youtube/XMC1400 blinking LED Without Timers/LEDblinkNoTimers/Dave/Generated/DIGITAL_IO\digital_io.h **** typedef struct DIGITAL_IO
 121:D:/Arduino Projects/Youtube/XMC1400 blinking LED Without Timers/LEDblinkNoTimers/Dave/Generated/DIGITAL_IO\digital_io.h **** {
 122:D:/Arduino Projects/Youtube/XMC1400 blinking LED Without Timers/LEDblinkNoTimers/Dave/Generated/DIGITAL_IO\digital_io.h ****   XMC_GPIO_PORT_t *const gpio_port;             /**< port number */
 123:D:/Arduino Projects/Youtube/XMC1400 blinking LED Without Timers/LEDblinkNoTimers/Dave/Generated/DIGITAL_IO\digital_io.h ****   const XMC_GPIO_CONFIG_t gpio_config;          /**< mode, initial output level and pad driver stre
 124:D:/Arduino Projects/Youtube/XMC1400 blinking LED Without Timers/LEDblinkNoTimers/Dave/Generated/DIGITAL_IO\digital_io.h ****   const uint8_t gpio_pin;                       /**< pin number */
 125:D:/Arduino Projects/Youtube/XMC1400 blinking LED Without Timers/LEDblinkNoTimers/Dave/Generated/DIGITAL_IO\digital_io.h ****   const XMC_GPIO_HWCTRL_t hwctrl;               /**< Hardware port control */
 126:D:/Arduino Projects/Youtube/XMC1400 blinking LED Without Timers/LEDblinkNoTimers/Dave/Generated/DIGITAL_IO\digital_io.h **** } DIGITAL_IO_t;
 127:D:/Arduino Projects/Youtube/XMC1400 blinking LED Without Timers/LEDblinkNoTimers/Dave/Generated/DIGITAL_IO\digital_io.h **** 
 128:D:/Arduino Projects/Youtube/XMC1400 blinking LED Without Timers/LEDblinkNoTimers/Dave/Generated/DIGITAL_IO\digital_io.h **** 
 129:D:/Arduino Projects/Youtube/XMC1400 blinking LED Without Timers/LEDblinkNoTimers/Dave/Generated/DIGITAL_IO\digital_io.h **** /**
 130:D:/Arduino Projects/Youtube/XMC1400 blinking LED Without Timers/LEDblinkNoTimers/Dave/Generated/DIGITAL_IO\digital_io.h **** * @}
 131:D:/Arduino Projects/Youtube/XMC1400 blinking LED Without Timers/LEDblinkNoTimers/Dave/Generated/DIGITAL_IO\digital_io.h **** */
 132:D:/Arduino Projects/Youtube/XMC1400 blinking LED Without Timers/LEDblinkNoTimers/Dave/Generated/DIGITAL_IO\digital_io.h **** 
 133:D:/Arduino Projects/Youtube/XMC1400 blinking LED Without Timers/LEDblinkNoTimers/Dave/Generated/DIGITAL_IO\digital_io.h **** 
 134:D:/Arduino Projects/Youtube/XMC1400 blinking LED Without Timers/LEDblinkNoTimers/Dave/Generated/DIGITAL_IO\digital_io.h **** /**************************************************************************************************
 135:D:/Arduino Projects/Youtube/XMC1400 blinking LED Without Timers/LEDblinkNoTimers/Dave/Generated/DIGITAL_IO\digital_io.h ****  * API Prototypes
 136:D:/Arduino Projects/Youtube/XMC1400 blinking LED Without Timers/LEDblinkNoTimers/Dave/Generated/DIGITAL_IO\digital_io.h ****  **************************************************************************************************
 137:D:/Arduino Projects/Youtube/XMC1400 blinking LED Without Timers/LEDblinkNoTimers/Dave/Generated/DIGITAL_IO\digital_io.h **** 
 138:D:/Arduino Projects/Youtube/XMC1400 blinking LED Without Timers/LEDblinkNoTimers/Dave/Generated/DIGITAL_IO\digital_io.h **** 
 139:D:/Arduino Projects/Youtube/XMC1400 blinking LED Without Timers/LEDblinkNoTimers/Dave/Generated/DIGITAL_IO\digital_io.h **** #ifdef __cplusplus
 140:D:/Arduino Projects/Youtube/XMC1400 blinking LED Without Timers/LEDblinkNoTimers/Dave/Generated/DIGITAL_IO\digital_io.h **** extern "C" {
 141:D:/Arduino Projects/Youtube/XMC1400 blinking LED Without Timers/LEDblinkNoTimers/Dave/Generated/DIGITAL_IO\digital_io.h **** #endif
 142:D:/Arduino Projects/Youtube/XMC1400 blinking LED Without Timers/LEDblinkNoTimers/Dave/Generated/DIGITAL_IO\digital_io.h **** 
 143:D:/Arduino Projects/Youtube/XMC1400 blinking LED Without Timers/LEDblinkNoTimers/Dave/Generated/DIGITAL_IO\digital_io.h **** /**
 144:D:/Arduino Projects/Youtube/XMC1400 blinking LED Without Timers/LEDblinkNoTimers/Dave/Generated/DIGITAL_IO\digital_io.h **** * @ingroup DIGITAL_IO_apidoc
 145:D:/Arduino Projects/Youtube/XMC1400 blinking LED Without Timers/LEDblinkNoTimers/Dave/Generated/DIGITAL_IO\digital_io.h **** * @{
 146:D:/Arduino Projects/Youtube/XMC1400 blinking LED Without Timers/LEDblinkNoTimers/Dave/Generated/DIGITAL_IO\digital_io.h **** */
 147:D:/Arduino Projects/Youtube/XMC1400 blinking LED Without Timers/LEDblinkNoTimers/Dave/Generated/DIGITAL_IO\digital_io.h **** 
 148:D:/Arduino Projects/Youtube/XMC1400 blinking LED Without Timers/LEDblinkNoTimers/Dave/Generated/DIGITAL_IO\digital_io.h **** 
 149:D:/Arduino Projects/Youtube/XMC1400 blinking LED Without Timers/LEDblinkNoTimers/Dave/Generated/DIGITAL_IO\digital_io.h **** 
 150:D:/Arduino Projects/Youtube/XMC1400 blinking LED Without Timers/LEDblinkNoTimers/Dave/Generated/DIGITAL_IO\digital_io.h **** /**
 151:D:/Arduino Projects/Youtube/XMC1400 blinking LED Without Timers/LEDblinkNoTimers/Dave/Generated/DIGITAL_IO\digital_io.h **** * @brief Get DIGITAL_IO APP version
 152:D:/Arduino Projects/Youtube/XMC1400 blinking LED Without Timers/LEDblinkNoTimers/Dave/Generated/DIGITAL_IO\digital_io.h **** * @return DAVE_APP_VERSION_t APP version information (major, minor and patch number)
 153:D:/Arduino Projects/Youtube/XMC1400 blinking LED Without Timers/LEDblinkNoTimers/Dave/Generated/DIGITAL_IO\digital_io.h **** *
 154:D:/Arduino Projects/Youtube/XMC1400 blinking LED Without Timers/LEDblinkNoTimers/Dave/Generated/DIGITAL_IO\digital_io.h **** * \par<b>Description: </b><br>
 155:D:/Arduino Projects/Youtube/XMC1400 blinking LED Without Timers/LEDblinkNoTimers/Dave/Generated/DIGITAL_IO\digital_io.h **** * The function can be used to check application software compatibility with a
 156:D:/Arduino Projects/Youtube/XMC1400 blinking LED Without Timers/LEDblinkNoTimers/Dave/Generated/DIGITAL_IO\digital_io.h **** * specific version of the APP.
 157:D:/Arduino Projects/Youtube/XMC1400 blinking LED Without Timers/LEDblinkNoTimers/Dave/Generated/DIGITAL_IO\digital_io.h **** *
 158:D:/Arduino Projects/Youtube/XMC1400 blinking LED Without Timers/LEDblinkNoTimers/Dave/Generated/DIGITAL_IO\digital_io.h **** * Example Usage:
 159:D:/Arduino Projects/Youtube/XMC1400 blinking LED Without Timers/LEDblinkNoTimers/Dave/Generated/DIGITAL_IO\digital_io.h **** *
 160:D:/Arduino Projects/Youtube/XMC1400 blinking LED Without Timers/LEDblinkNoTimers/Dave/Generated/DIGITAL_IO\digital_io.h **** * @code
 161:D:/Arduino Projects/Youtube/XMC1400 blinking LED Without Timers/LEDblinkNoTimers/Dave/Generated/DIGITAL_IO\digital_io.h **** * #include "DAVE.h"
 162:D:/Arduino Projects/Youtube/XMC1400 blinking LED Without Timers/LEDblinkNoTimers/Dave/Generated/DIGITAL_IO\digital_io.h **** *
 163:D:/Arduino Projects/Youtube/XMC1400 blinking LED Without Timers/LEDblinkNoTimers/Dave/Generated/DIGITAL_IO\digital_io.h **** * int main(void)
 164:D:/Arduino Projects/Youtube/XMC1400 blinking LED Without Timers/LEDblinkNoTimers/Dave/Generated/DIGITAL_IO\digital_io.h **** * {
 165:D:/Arduino Projects/Youtube/XMC1400 blinking LED Without Timers/LEDblinkNoTimers/Dave/Generated/DIGITAL_IO\digital_io.h **** *   DAVE_STATUS_t init_status;
 166:D:/Arduino Projects/Youtube/XMC1400 blinking LED Without Timers/LEDblinkNoTimers/Dave/Generated/DIGITAL_IO\digital_io.h **** *   DAVE_APP_VERSION_t version;
 167:D:/Arduino Projects/Youtube/XMC1400 blinking LED Without Timers/LEDblinkNoTimers/Dave/Generated/DIGITAL_IO\digital_io.h **** *
 168:D:/Arduino Projects/Youtube/XMC1400 blinking LED Without Timers/LEDblinkNoTimers/Dave/Generated/DIGITAL_IO\digital_io.h **** *   // Initialize DIGITAL_IO APP:
 169:D:/Arduino Projects/Youtube/XMC1400 blinking LED Without Timers/LEDblinkNoTimers/Dave/Generated/DIGITAL_IO\digital_io.h **** *   // DIGITAL_IO_Init() is called from within DAVE_Init().
 170:D:/Arduino Projects/Youtube/XMC1400 blinking LED Without Timers/LEDblinkNoTimers/Dave/Generated/DIGITAL_IO\digital_io.h **** *   init_status = DAVE_Init();
 171:D:/Arduino Projects/Youtube/XMC1400 blinking LED Without Timers/LEDblinkNoTimers/Dave/Generated/DIGITAL_IO\digital_io.h **** *   if(init_status == DAVE_STATUS_SUCCESS)
 172:D:/Arduino Projects/Youtube/XMC1400 blinking LED Without Timers/LEDblinkNoTimers/Dave/Generated/DIGITAL_IO\digital_io.h **** *   {
 173:D:/Arduino Projects/Youtube/XMC1400 blinking LED Without Timers/LEDblinkNoTimers/Dave/Generated/DIGITAL_IO\digital_io.h **** *     version = DIGITAL_IO_GetAppVersion();
 174:D:/Arduino Projects/Youtube/XMC1400 blinking LED Without Timers/LEDblinkNoTimers/Dave/Generated/DIGITAL_IO\digital_io.h **** *     if (version.major != 4U) {
 175:D:/Arduino Projects/Youtube/XMC1400 blinking LED Without Timers/LEDblinkNoTimers/Dave/Generated/DIGITAL_IO\digital_io.h **** *     // Probably, not the right version.
 176:D:/Arduino Projects/Youtube/XMC1400 blinking LED Without Timers/LEDblinkNoTimers/Dave/Generated/DIGITAL_IO\digital_io.h **** *     }
 177:D:/Arduino Projects/Youtube/XMC1400 blinking LED Without Timers/LEDblinkNoTimers/Dave/Generated/DIGITAL_IO\digital_io.h **** *   }
 178:D:/Arduino Projects/Youtube/XMC1400 blinking LED Without Timers/LEDblinkNoTimers/Dave/Generated/DIGITAL_IO\digital_io.h **** *
 179:D:/Arduino Projects/Youtube/XMC1400 blinking LED Without Timers/LEDblinkNoTimers/Dave/Generated/DIGITAL_IO\digital_io.h **** *     // More code here
 180:D:/Arduino Projects/Youtube/XMC1400 blinking LED Without Timers/LEDblinkNoTimers/Dave/Generated/DIGITAL_IO\digital_io.h **** *     while(1) {
 181:D:/Arduino Projects/Youtube/XMC1400 blinking LED Without Timers/LEDblinkNoTimers/Dave/Generated/DIGITAL_IO\digital_io.h **** *
 182:D:/Arduino Projects/Youtube/XMC1400 blinking LED Without Timers/LEDblinkNoTimers/Dave/Generated/DIGITAL_IO\digital_io.h **** *     }
 183:D:/Arduino Projects/Youtube/XMC1400 blinking LED Without Timers/LEDblinkNoTimers/Dave/Generated/DIGITAL_IO\digital_io.h **** *     return (1);
 184:D:/Arduino Projects/Youtube/XMC1400 blinking LED Without Timers/LEDblinkNoTimers/Dave/Generated/DIGITAL_IO\digital_io.h **** *  }
 185:D:/Arduino Projects/Youtube/XMC1400 blinking LED Without Timers/LEDblinkNoTimers/Dave/Generated/DIGITAL_IO\digital_io.h **** * @endcode<BR>
 186:D:/Arduino Projects/Youtube/XMC1400 blinking LED Without Timers/LEDblinkNoTimers/Dave/Generated/DIGITAL_IO\digital_io.h **** */
 187:D:/Arduino Projects/Youtube/XMC1400 blinking LED Without Timers/LEDblinkNoTimers/Dave/Generated/DIGITAL_IO\digital_io.h **** 
 188:D:/Arduino Projects/Youtube/XMC1400 blinking LED Without Timers/LEDblinkNoTimers/Dave/Generated/DIGITAL_IO\digital_io.h **** DAVE_APP_VERSION_t DIGITAL_IO_GetAppVersion(void);
 189:D:/Arduino Projects/Youtube/XMC1400 blinking LED Without Timers/LEDblinkNoTimers/Dave/Generated/DIGITAL_IO\digital_io.h **** 
 190:D:/Arduino Projects/Youtube/XMC1400 blinking LED Without Timers/LEDblinkNoTimers/Dave/Generated/DIGITAL_IO\digital_io.h **** /**
 191:D:/Arduino Projects/Youtube/XMC1400 blinking LED Without Timers/LEDblinkNoTimers/Dave/Generated/DIGITAL_IO\digital_io.h **** *
 192:D:/Arduino Projects/Youtube/XMC1400 blinking LED Without Timers/LEDblinkNoTimers/Dave/Generated/DIGITAL_IO\digital_io.h **** * @brief Function to initialize the port pin as per UI settings.
 193:D:/Arduino Projects/Youtube/XMC1400 blinking LED Without Timers/LEDblinkNoTimers/Dave/Generated/DIGITAL_IO\digital_io.h **** * @param handler Pointer pointing to APP data structure. Refer @ref DIGITAL_IO_t for details.
 194:D:/Arduino Projects/Youtube/XMC1400 blinking LED Without Timers/LEDblinkNoTimers/Dave/Generated/DIGITAL_IO\digital_io.h **** * @return DIGITAL_IO_STATUS_t DIGITAL_IO APP status. Refer @ref DIGITAL_IO_STATUS_t structure for d
 195:D:/Arduino Projects/Youtube/XMC1400 blinking LED Without Timers/LEDblinkNoTimers/Dave/Generated/DIGITAL_IO\digital_io.h **** *
 196:D:/Arduino Projects/Youtube/XMC1400 blinking LED Without Timers/LEDblinkNoTimers/Dave/Generated/DIGITAL_IO\digital_io.h **** * \par<b>Description:</b><br>
 197:D:/Arduino Projects/Youtube/XMC1400 blinking LED Without Timers/LEDblinkNoTimers/Dave/Generated/DIGITAL_IO\digital_io.h **** * This function initializes GPIO port registers IOCR,PDISC,OMR,PDR/PHCR to configure pin direction,
 198:D:/Arduino Projects/Youtube/XMC1400 blinking LED Without Timers/LEDblinkNoTimers/Dave/Generated/DIGITAL_IO\digital_io.h **** * and pad driver strength/hysteresis.
 199:D:/Arduino Projects/Youtube/XMC1400 blinking LED Without Timers/LEDblinkNoTimers/Dave/Generated/DIGITAL_IO\digital_io.h **** *
 200:D:/Arduino Projects/Youtube/XMC1400 blinking LED Without Timers/LEDblinkNoTimers/Dave/Generated/DIGITAL_IO\digital_io.h **** * \par<b>Related APIs:</b><BR>
 201:D:/Arduino Projects/Youtube/XMC1400 blinking LED Without Timers/LEDblinkNoTimers/Dave/Generated/DIGITAL_IO\digital_io.h **** * None
 202:D:/Arduino Projects/Youtube/XMC1400 blinking LED Without Timers/LEDblinkNoTimers/Dave/Generated/DIGITAL_IO\digital_io.h **** *
 203:D:/Arduino Projects/Youtube/XMC1400 blinking LED Without Timers/LEDblinkNoTimers/Dave/Generated/DIGITAL_IO\digital_io.h **** * Example Usage:
 204:D:/Arduino Projects/Youtube/XMC1400 blinking LED Without Timers/LEDblinkNoTimers/Dave/Generated/DIGITAL_IO\digital_io.h **** * @code
 205:D:/Arduino Projects/Youtube/XMC1400 blinking LED Without Timers/LEDblinkNoTimers/Dave/Generated/DIGITAL_IO\digital_io.h **** * #include "DAVE.h" //Declarations from DAVE Code Generation (includes SFR declaration)
 206:D:/Arduino Projects/Youtube/XMC1400 blinking LED Without Timers/LEDblinkNoTimers/Dave/Generated/DIGITAL_IO\digital_io.h **** *
 207:D:/Arduino Projects/Youtube/XMC1400 blinking LED Without Timers/LEDblinkNoTimers/Dave/Generated/DIGITAL_IO\digital_io.h **** * int main(void)
 208:D:/Arduino Projects/Youtube/XMC1400 blinking LED Without Timers/LEDblinkNoTimers/Dave/Generated/DIGITAL_IO\digital_io.h **** * {
 209:D:/Arduino Projects/Youtube/XMC1400 blinking LED Without Timers/LEDblinkNoTimers/Dave/Generated/DIGITAL_IO\digital_io.h **** *   DAVE_STATUS_t status;
 210:D:/Arduino Projects/Youtube/XMC1400 blinking LED Without Timers/LEDblinkNoTimers/Dave/Generated/DIGITAL_IO\digital_io.h **** *   status = DAVE_Init();  //(DAVE_STATUS_t)DIGITAL_IO_Init(&DIGITAL_IO_0) is called within DAVE_In
 211:D:/Arduino Projects/Youtube/XMC1400 blinking LED Without Timers/LEDblinkNoTimers/Dave/Generated/DIGITAL_IO\digital_io.h **** *   if(status == DAVE_STATUS_SUCCESS)
 212:D:/Arduino Projects/Youtube/XMC1400 blinking LED Without Timers/LEDblinkNoTimers/Dave/Generated/DIGITAL_IO\digital_io.h **** *   {
 213:D:/Arduino Projects/Youtube/XMC1400 blinking LED Without Timers/LEDblinkNoTimers/Dave/Generated/DIGITAL_IO\digital_io.h **** *     XMC_DEBUG("DAVE Apps initialization success\n");
 214:D:/Arduino Projects/Youtube/XMC1400 blinking LED Without Timers/LEDblinkNoTimers/Dave/Generated/DIGITAL_IO\digital_io.h **** *   }
 215:D:/Arduino Projects/Youtube/XMC1400 blinking LED Without Timers/LEDblinkNoTimers/Dave/Generated/DIGITAL_IO\digital_io.h **** *   else
 216:D:/Arduino Projects/Youtube/XMC1400 blinking LED Without Timers/LEDblinkNoTimers/Dave/Generated/DIGITAL_IO\digital_io.h **** *   {
 217:D:/Arduino Projects/Youtube/XMC1400 blinking LED Without Timers/LEDblinkNoTimers/Dave/Generated/DIGITAL_IO\digital_io.h **** *     XMC_DEBUG(("DAVE Apps initialization failed with status %d\n", status));
 218:D:/Arduino Projects/Youtube/XMC1400 blinking LED Without Timers/LEDblinkNoTimers/Dave/Generated/DIGITAL_IO\digital_io.h **** *     while(1U)
 219:D:/Arduino Projects/Youtube/XMC1400 blinking LED Without Timers/LEDblinkNoTimers/Dave/Generated/DIGITAL_IO\digital_io.h **** *     {
 220:D:/Arduino Projects/Youtube/XMC1400 blinking LED Without Timers/LEDblinkNoTimers/Dave/Generated/DIGITAL_IO\digital_io.h **** *     }
 221:D:/Arduino Projects/Youtube/XMC1400 blinking LED Without Timers/LEDblinkNoTimers/Dave/Generated/DIGITAL_IO\digital_io.h **** *   }
 222:D:/Arduino Projects/Youtube/XMC1400 blinking LED Without Timers/LEDblinkNoTimers/Dave/Generated/DIGITAL_IO\digital_io.h **** *   //Placeholder for user application code. The while loop below can be replaced with user applica
 223:D:/Arduino Projects/Youtube/XMC1400 blinking LED Without Timers/LEDblinkNoTimers/Dave/Generated/DIGITAL_IO\digital_io.h **** *   while(1U)
 224:D:/Arduino Projects/Youtube/XMC1400 blinking LED Without Timers/LEDblinkNoTimers/Dave/Generated/DIGITAL_IO\digital_io.h **** *   {
 225:D:/Arduino Projects/Youtube/XMC1400 blinking LED Without Timers/LEDblinkNoTimers/Dave/Generated/DIGITAL_IO\digital_io.h **** *   }
 226:D:/Arduino Projects/Youtube/XMC1400 blinking LED Without Timers/LEDblinkNoTimers/Dave/Generated/DIGITAL_IO\digital_io.h **** *   return 1U;
 227:D:/Arduino Projects/Youtube/XMC1400 blinking LED Without Timers/LEDblinkNoTimers/Dave/Generated/DIGITAL_IO\digital_io.h **** *  }
 228:D:/Arduino Projects/Youtube/XMC1400 blinking LED Without Timers/LEDblinkNoTimers/Dave/Generated/DIGITAL_IO\digital_io.h **** *  @endcode
 229:D:/Arduino Projects/Youtube/XMC1400 blinking LED Without Timers/LEDblinkNoTimers/Dave/Generated/DIGITAL_IO\digital_io.h **** */
 230:D:/Arduino Projects/Youtube/XMC1400 blinking LED Without Timers/LEDblinkNoTimers/Dave/Generated/DIGITAL_IO\digital_io.h **** 
 231:D:/Arduino Projects/Youtube/XMC1400 blinking LED Without Timers/LEDblinkNoTimers/Dave/Generated/DIGITAL_IO\digital_io.h **** DIGITAL_IO_STATUS_t DIGITAL_IO_Init(const DIGITAL_IO_t *const handler);
 232:D:/Arduino Projects/Youtube/XMC1400 blinking LED Without Timers/LEDblinkNoTimers/Dave/Generated/DIGITAL_IO\digital_io.h **** 
 233:D:/Arduino Projects/Youtube/XMC1400 blinking LED Without Timers/LEDblinkNoTimers/Dave/Generated/DIGITAL_IO\digital_io.h **** /**
 234:D:/Arduino Projects/Youtube/XMC1400 blinking LED Without Timers/LEDblinkNoTimers/Dave/Generated/DIGITAL_IO\digital_io.h **** *
 235:D:/Arduino Projects/Youtube/XMC1400 blinking LED Without Timers/LEDblinkNoTimers/Dave/Generated/DIGITAL_IO\digital_io.h **** * @brief Function to set port pin high.
 236:D:/Arduino Projects/Youtube/XMC1400 blinking LED Without Timers/LEDblinkNoTimers/Dave/Generated/DIGITAL_IO\digital_io.h **** * @param handler Pointer pointing to APP data structure. Refer @ref DIGITAL_IO_t for details.
 237:D:/Arduino Projects/Youtube/XMC1400 blinking LED Without Timers/LEDblinkNoTimers/Dave/Generated/DIGITAL_IO\digital_io.h **** * @return None
 238:D:/Arduino Projects/Youtube/XMC1400 blinking LED Without Timers/LEDblinkNoTimers/Dave/Generated/DIGITAL_IO\digital_io.h **** *
 239:D:/Arduino Projects/Youtube/XMC1400 blinking LED Without Timers/LEDblinkNoTimers/Dave/Generated/DIGITAL_IO\digital_io.h **** * \par<b>Description:</b><br>
 240:D:/Arduino Projects/Youtube/XMC1400 blinking LED Without Timers/LEDblinkNoTimers/Dave/Generated/DIGITAL_IO\digital_io.h **** * This function configures port output modification register Pn_OMR, to make port pin to high level
 241:D:/Arduino Projects/Youtube/XMC1400 blinking LED Without Timers/LEDblinkNoTimers/Dave/Generated/DIGITAL_IO\digital_io.h **** *
 242:D:/Arduino Projects/Youtube/XMC1400 blinking LED Without Timers/LEDblinkNoTimers/Dave/Generated/DIGITAL_IO\digital_io.h **** * \par<b>Related APIs:</b><BR>
 243:D:/Arduino Projects/Youtube/XMC1400 blinking LED Without Timers/LEDblinkNoTimers/Dave/Generated/DIGITAL_IO\digital_io.h **** *  DIGITAL_IO_SetOutputLow()
 244:D:/Arduino Projects/Youtube/XMC1400 blinking LED Without Timers/LEDblinkNoTimers/Dave/Generated/DIGITAL_IO\digital_io.h **** *
 245:D:/Arduino Projects/Youtube/XMC1400 blinking LED Without Timers/LEDblinkNoTimers/Dave/Generated/DIGITAL_IO\digital_io.h **** * Example Usage:
 246:D:/Arduino Projects/Youtube/XMC1400 blinking LED Without Timers/LEDblinkNoTimers/Dave/Generated/DIGITAL_IO\digital_io.h **** * @code
 247:D:/Arduino Projects/Youtube/XMC1400 blinking LED Without Timers/LEDblinkNoTimers/Dave/Generated/DIGITAL_IO\digital_io.h **** * #include "DAVE.h" //Declarations from DAVE Code Generation (includes SFR declaration)
 248:D:/Arduino Projects/Youtube/XMC1400 blinking LED Without Timers/LEDblinkNoTimers/Dave/Generated/DIGITAL_IO\digital_io.h **** *
 249:D:/Arduino Projects/Youtube/XMC1400 blinking LED Without Timers/LEDblinkNoTimers/Dave/Generated/DIGITAL_IO\digital_io.h **** * int main(void)
 250:D:/Arduino Projects/Youtube/XMC1400 blinking LED Without Timers/LEDblinkNoTimers/Dave/Generated/DIGITAL_IO\digital_io.h **** * {
 251:D:/Arduino Projects/Youtube/XMC1400 blinking LED Without Timers/LEDblinkNoTimers/Dave/Generated/DIGITAL_IO\digital_io.h **** *   DAVE_STATUS_t status;
 252:D:/Arduino Projects/Youtube/XMC1400 blinking LED Without Timers/LEDblinkNoTimers/Dave/Generated/DIGITAL_IO\digital_io.h **** *   status = DAVE_Init();  //(DAVE_STATUS_t)DIGITAL_IO_Init(&DIGITAL_IO_0) is called within DAVE_In
 253:D:/Arduino Projects/Youtube/XMC1400 blinking LED Without Timers/LEDblinkNoTimers/Dave/Generated/DIGITAL_IO\digital_io.h **** *   if(status == DAVE_STATUS_SUCCESS)
 254:D:/Arduino Projects/Youtube/XMC1400 blinking LED Without Timers/LEDblinkNoTimers/Dave/Generated/DIGITAL_IO\digital_io.h **** *   {
 255:D:/Arduino Projects/Youtube/XMC1400 blinking LED Without Timers/LEDblinkNoTimers/Dave/Generated/DIGITAL_IO\digital_io.h **** *     XMC_DEBUG("DAVE Apps initialization success\n");
 256:D:/Arduino Projects/Youtube/XMC1400 blinking LED Without Timers/LEDblinkNoTimers/Dave/Generated/DIGITAL_IO\digital_io.h **** *   }
 257:D:/Arduino Projects/Youtube/XMC1400 blinking LED Without Timers/LEDblinkNoTimers/Dave/Generated/DIGITAL_IO\digital_io.h **** *   else
 258:D:/Arduino Projects/Youtube/XMC1400 blinking LED Without Timers/LEDblinkNoTimers/Dave/Generated/DIGITAL_IO\digital_io.h **** *   {
 259:D:/Arduino Projects/Youtube/XMC1400 blinking LED Without Timers/LEDblinkNoTimers/Dave/Generated/DIGITAL_IO\digital_io.h **** *     XMC_DEBUG(("DAVE Apps initialization failed with status %d\n", status));
 260:D:/Arduino Projects/Youtube/XMC1400 blinking LED Without Timers/LEDblinkNoTimers/Dave/Generated/DIGITAL_IO\digital_io.h **** *     while(1U)
 261:D:/Arduino Projects/Youtube/XMC1400 blinking LED Without Timers/LEDblinkNoTimers/Dave/Generated/DIGITAL_IO\digital_io.h **** *     {
 262:D:/Arduino Projects/Youtube/XMC1400 blinking LED Without Timers/LEDblinkNoTimers/Dave/Generated/DIGITAL_IO\digital_io.h **** *     }
 263:D:/Arduino Projects/Youtube/XMC1400 blinking LED Without Timers/LEDblinkNoTimers/Dave/Generated/DIGITAL_IO\digital_io.h **** *   }
 264:D:/Arduino Projects/Youtube/XMC1400 blinking LED Without Timers/LEDblinkNoTimers/Dave/Generated/DIGITAL_IO\digital_io.h **** *   //Placeholder for user application code. The while loop below can be replaced with user applica
 265:D:/Arduino Projects/Youtube/XMC1400 blinking LED Without Timers/LEDblinkNoTimers/Dave/Generated/DIGITAL_IO\digital_io.h **** *   DIGITAL_IO_SetOutputHigh(&DIGITAL_IO_0);
 266:D:/Arduino Projects/Youtube/XMC1400 blinking LED Without Timers/LEDblinkNoTimers/Dave/Generated/DIGITAL_IO\digital_io.h **** *   while(1U)
 267:D:/Arduino Projects/Youtube/XMC1400 blinking LED Without Timers/LEDblinkNoTimers/Dave/Generated/DIGITAL_IO\digital_io.h **** *   {
 268:D:/Arduino Projects/Youtube/XMC1400 blinking LED Without Timers/LEDblinkNoTimers/Dave/Generated/DIGITAL_IO\digital_io.h **** *     // Add application code here
 269:D:/Arduino Projects/Youtube/XMC1400 blinking LED Without Timers/LEDblinkNoTimers/Dave/Generated/DIGITAL_IO\digital_io.h **** *   }
 270:D:/Arduino Projects/Youtube/XMC1400 blinking LED Without Timers/LEDblinkNoTimers/Dave/Generated/DIGITAL_IO\digital_io.h **** *
 271:D:/Arduino Projects/Youtube/XMC1400 blinking LED Without Timers/LEDblinkNoTimers/Dave/Generated/DIGITAL_IO\digital_io.h **** *   return (1);
 272:D:/Arduino Projects/Youtube/XMC1400 blinking LED Without Timers/LEDblinkNoTimers/Dave/Generated/DIGITAL_IO\digital_io.h **** * }
 273:D:/Arduino Projects/Youtube/XMC1400 blinking LED Without Timers/LEDblinkNoTimers/Dave/Generated/DIGITAL_IO\digital_io.h **** *  @endcode
 274:D:/Arduino Projects/Youtube/XMC1400 blinking LED Without Timers/LEDblinkNoTimers/Dave/Generated/DIGITAL_IO\digital_io.h **** */
 275:D:/Arduino Projects/Youtube/XMC1400 blinking LED Without Timers/LEDblinkNoTimers/Dave/Generated/DIGITAL_IO\digital_io.h **** 
 276:D:/Arduino Projects/Youtube/XMC1400 blinking LED Without Timers/LEDblinkNoTimers/Dave/Generated/DIGITAL_IO\digital_io.h **** __STATIC_INLINE void DIGITAL_IO_SetOutputHigh(const DIGITAL_IO_t *const handler)
 277:D:/Arduino Projects/Youtube/XMC1400 blinking LED Without Timers/LEDblinkNoTimers/Dave/Generated/DIGITAL_IO\digital_io.h **** {
 105              	 .loc 2 277 0
 106              	 .cfi_startproc
 107 0000 80B5     	 push {r7,lr}
 108              	.LCFI6:
 109              	 .cfi_def_cfa_offset 8
 110              	 .cfi_offset 7,-8
 111              	 .cfi_offset 14,-4
 112 0002 82B0     	 sub sp,sp,#8
 113              	.LCFI7:
 114              	 .cfi_def_cfa_offset 16
 115 0004 00AF     	 add r7,sp,#0
 116              	.LCFI8:
 117              	 .cfi_def_cfa_register 7
 118 0006 7860     	 str r0,[r7,#4]
 278:D:/Arduino Projects/Youtube/XMC1400 blinking LED Without Timers/LEDblinkNoTimers/Dave/Generated/DIGITAL_IO\digital_io.h ****   XMC_ASSERT("DIGITAL_IO_SetOutputHigh: handler null pointer", handler != NULL);
 279:D:/Arduino Projects/Youtube/XMC1400 blinking LED Without Timers/LEDblinkNoTimers/Dave/Generated/DIGITAL_IO\digital_io.h ****   XMC_GPIO_SetOutputHigh(handler->gpio_port, handler->gpio_pin);
 119              	 .loc 2 279 0
 120 0008 7B68     	 ldr r3,[r7,#4]
 121 000a 1A68     	 ldr r2,[r3]
 122 000c 7B68     	 ldr r3,[r7,#4]
 123 000e 1B7B     	 ldrb r3,[r3,#12]
 124 0010 101C     	 mov r0,r2
 125 0012 191C     	 mov r1,r3
 126 0014 FFF7FEFF 	 bl XMC_GPIO_SetOutputHigh
 280:D:/Arduino Projects/Youtube/XMC1400 blinking LED Without Timers/LEDblinkNoTimers/Dave/Generated/DIGITAL_IO\digital_io.h **** }
 127              	 .loc 2 280 0
 128 0018 BD46     	 mov sp,r7
 129 001a 02B0     	 add sp,sp,#8
 130              	 
 131 001c 80BD     	 pop {r7,pc}
 132              	 .cfi_endproc
 133              	.LFE52:
 135 001e C046     	 .section .text.DIGITAL_IO_SetOutputLow,"ax",%progbits
 136              	 .align 2
 137              	 .code 16
 138              	 .thumb_func
 140              	DIGITAL_IO_SetOutputLow:
 141              	.LFB53:
 281:D:/Arduino Projects/Youtube/XMC1400 blinking LED Without Timers/LEDblinkNoTimers/Dave/Generated/DIGITAL_IO\digital_io.h **** 
 282:D:/Arduino Projects/Youtube/XMC1400 blinking LED Without Timers/LEDblinkNoTimers/Dave/Generated/DIGITAL_IO\digital_io.h **** /**
 283:D:/Arduino Projects/Youtube/XMC1400 blinking LED Without Timers/LEDblinkNoTimers/Dave/Generated/DIGITAL_IO\digital_io.h **** * @brief Function to reset port pin.
 284:D:/Arduino Projects/Youtube/XMC1400 blinking LED Without Timers/LEDblinkNoTimers/Dave/Generated/DIGITAL_IO\digital_io.h **** * @param handler Pointer pointing to APP data structure. Refer @ref DIGITAL_IO_t for details.
 285:D:/Arduino Projects/Youtube/XMC1400 blinking LED Without Timers/LEDblinkNoTimers/Dave/Generated/DIGITAL_IO\digital_io.h **** * @return None
 286:D:/Arduino Projects/Youtube/XMC1400 blinking LED Without Timers/LEDblinkNoTimers/Dave/Generated/DIGITAL_IO\digital_io.h **** *
 287:D:/Arduino Projects/Youtube/XMC1400 blinking LED Without Timers/LEDblinkNoTimers/Dave/Generated/DIGITAL_IO\digital_io.h **** * \par<b>Description:</b><br>
 288:D:/Arduino Projects/Youtube/XMC1400 blinking LED Without Timers/LEDblinkNoTimers/Dave/Generated/DIGITAL_IO\digital_io.h **** * This function configures port output modification register Pn_OMR, to make port pin to low level.
 289:D:/Arduino Projects/Youtube/XMC1400 blinking LED Without Timers/LEDblinkNoTimers/Dave/Generated/DIGITAL_IO\digital_io.h **** *
 290:D:/Arduino Projects/Youtube/XMC1400 blinking LED Without Timers/LEDblinkNoTimers/Dave/Generated/DIGITAL_IO\digital_io.h **** * \par<b>Related APIs:</b><BR>
 291:D:/Arduino Projects/Youtube/XMC1400 blinking LED Without Timers/LEDblinkNoTimers/Dave/Generated/DIGITAL_IO\digital_io.h **** * DIGITAL_IO_SetOutputHigh()
 292:D:/Arduino Projects/Youtube/XMC1400 blinking LED Without Timers/LEDblinkNoTimers/Dave/Generated/DIGITAL_IO\digital_io.h **** *
 293:D:/Arduino Projects/Youtube/XMC1400 blinking LED Without Timers/LEDblinkNoTimers/Dave/Generated/DIGITAL_IO\digital_io.h **** * Example Usage:
 294:D:/Arduino Projects/Youtube/XMC1400 blinking LED Without Timers/LEDblinkNoTimers/Dave/Generated/DIGITAL_IO\digital_io.h **** * @code
 295:D:/Arduino Projects/Youtube/XMC1400 blinking LED Without Timers/LEDblinkNoTimers/Dave/Generated/DIGITAL_IO\digital_io.h **** *  #include "DAVE.h" //Declarations from DAVE Code Generation (includes SFR declaration)
 296:D:/Arduino Projects/Youtube/XMC1400 blinking LED Without Timers/LEDblinkNoTimers/Dave/Generated/DIGITAL_IO\digital_io.h **** *
 297:D:/Arduino Projects/Youtube/XMC1400 blinking LED Without Timers/LEDblinkNoTimers/Dave/Generated/DIGITAL_IO\digital_io.h **** *  int main(void)
 298:D:/Arduino Projects/Youtube/XMC1400 blinking LED Without Timers/LEDblinkNoTimers/Dave/Generated/DIGITAL_IO\digital_io.h **** *  {
 299:D:/Arduino Projects/Youtube/XMC1400 blinking LED Without Timers/LEDblinkNoTimers/Dave/Generated/DIGITAL_IO\digital_io.h **** *    DAVE_STATUS_t status;
 300:D:/Arduino Projects/Youtube/XMC1400 blinking LED Without Timers/LEDblinkNoTimers/Dave/Generated/DIGITAL_IO\digital_io.h **** *    status = DAVE_Init();  //(DAVE_STATUS_t)DIGITAL_IO_Init(&DIGITAL_IO_0) is called within DAVE_I
 301:D:/Arduino Projects/Youtube/XMC1400 blinking LED Without Timers/LEDblinkNoTimers/Dave/Generated/DIGITAL_IO\digital_io.h **** *    if(status == DAVE_STATUS_SUCCESS)
 302:D:/Arduino Projects/Youtube/XMC1400 blinking LED Without Timers/LEDblinkNoTimers/Dave/Generated/DIGITAL_IO\digital_io.h **** *    {
 303:D:/Arduino Projects/Youtube/XMC1400 blinking LED Without Timers/LEDblinkNoTimers/Dave/Generated/DIGITAL_IO\digital_io.h **** *      XMC_DEBUG("DAVE Apps initialization success\n");
 304:D:/Arduino Projects/Youtube/XMC1400 blinking LED Without Timers/LEDblinkNoTimers/Dave/Generated/DIGITAL_IO\digital_io.h **** *    }
 305:D:/Arduino Projects/Youtube/XMC1400 blinking LED Without Timers/LEDblinkNoTimers/Dave/Generated/DIGITAL_IO\digital_io.h **** *    else
 306:D:/Arduino Projects/Youtube/XMC1400 blinking LED Without Timers/LEDblinkNoTimers/Dave/Generated/DIGITAL_IO\digital_io.h **** *    {
 307:D:/Arduino Projects/Youtube/XMC1400 blinking LED Without Timers/LEDblinkNoTimers/Dave/Generated/DIGITAL_IO\digital_io.h **** *      XMC_DEBUG(("DAVE Apps initialization failed with status %d\n", status));
 308:D:/Arduino Projects/Youtube/XMC1400 blinking LED Without Timers/LEDblinkNoTimers/Dave/Generated/DIGITAL_IO\digital_io.h **** *      while(1U)
 309:D:/Arduino Projects/Youtube/XMC1400 blinking LED Without Timers/LEDblinkNoTimers/Dave/Generated/DIGITAL_IO\digital_io.h **** *      {
 310:D:/Arduino Projects/Youtube/XMC1400 blinking LED Without Timers/LEDblinkNoTimers/Dave/Generated/DIGITAL_IO\digital_io.h **** *      }
 311:D:/Arduino Projects/Youtube/XMC1400 blinking LED Without Timers/LEDblinkNoTimers/Dave/Generated/DIGITAL_IO\digital_io.h **** *    }
 312:D:/Arduino Projects/Youtube/XMC1400 blinking LED Without Timers/LEDblinkNoTimers/Dave/Generated/DIGITAL_IO\digital_io.h **** *    //Placeholder for user application code. The while loop below can be replaced with user applic
 313:D:/Arduino Projects/Youtube/XMC1400 blinking LED Without Timers/LEDblinkNoTimers/Dave/Generated/DIGITAL_IO\digital_io.h **** *    DIGITAL_IO_SetOutputLow(&DIGITAL_IO_0);
 314:D:/Arduino Projects/Youtube/XMC1400 blinking LED Without Timers/LEDblinkNoTimers/Dave/Generated/DIGITAL_IO\digital_io.h **** *    while(1U)
 315:D:/Arduino Projects/Youtube/XMC1400 blinking LED Without Timers/LEDblinkNoTimers/Dave/Generated/DIGITAL_IO\digital_io.h **** *    {
 316:D:/Arduino Projects/Youtube/XMC1400 blinking LED Without Timers/LEDblinkNoTimers/Dave/Generated/DIGITAL_IO\digital_io.h **** *      // Add application code here
 317:D:/Arduino Projects/Youtube/XMC1400 blinking LED Without Timers/LEDblinkNoTimers/Dave/Generated/DIGITAL_IO\digital_io.h **** *    }
 318:D:/Arduino Projects/Youtube/XMC1400 blinking LED Without Timers/LEDblinkNoTimers/Dave/Generated/DIGITAL_IO\digital_io.h **** *
 319:D:/Arduino Projects/Youtube/XMC1400 blinking LED Without Timers/LEDblinkNoTimers/Dave/Generated/DIGITAL_IO\digital_io.h **** *   return (1);
 320:D:/Arduino Projects/Youtube/XMC1400 blinking LED Without Timers/LEDblinkNoTimers/Dave/Generated/DIGITAL_IO\digital_io.h **** * }
 321:D:/Arduino Projects/Youtube/XMC1400 blinking LED Without Timers/LEDblinkNoTimers/Dave/Generated/DIGITAL_IO\digital_io.h **** *  @endcode
 322:D:/Arduino Projects/Youtube/XMC1400 blinking LED Without Timers/LEDblinkNoTimers/Dave/Generated/DIGITAL_IO\digital_io.h **** */
 323:D:/Arduino Projects/Youtube/XMC1400 blinking LED Without Timers/LEDblinkNoTimers/Dave/Generated/DIGITAL_IO\digital_io.h **** 
 324:D:/Arduino Projects/Youtube/XMC1400 blinking LED Without Timers/LEDblinkNoTimers/Dave/Generated/DIGITAL_IO\digital_io.h **** __STATIC_INLINE void DIGITAL_IO_SetOutputLow(const DIGITAL_IO_t *const handler)
 325:D:/Arduino Projects/Youtube/XMC1400 blinking LED Without Timers/LEDblinkNoTimers/Dave/Generated/DIGITAL_IO\digital_io.h **** {
 142              	 .loc 2 325 0
 143              	 .cfi_startproc
 144 0000 80B5     	 push {r7,lr}
 145              	.LCFI9:
 146              	 .cfi_def_cfa_offset 8
 147              	 .cfi_offset 7,-8
 148              	 .cfi_offset 14,-4
 149 0002 82B0     	 sub sp,sp,#8
 150              	.LCFI10:
 151              	 .cfi_def_cfa_offset 16
 152 0004 00AF     	 add r7,sp,#0
 153              	.LCFI11:
 154              	 .cfi_def_cfa_register 7
 155 0006 7860     	 str r0,[r7,#4]
 326:D:/Arduino Projects/Youtube/XMC1400 blinking LED Without Timers/LEDblinkNoTimers/Dave/Generated/DIGITAL_IO\digital_io.h ****   XMC_ASSERT("DIGITAL_IO_SetOutputLow: handler null pointer", handler != NULL);
 327:D:/Arduino Projects/Youtube/XMC1400 blinking LED Without Timers/LEDblinkNoTimers/Dave/Generated/DIGITAL_IO\digital_io.h ****   XMC_GPIO_SetOutputLow(handler->gpio_port,handler->gpio_pin);
 156              	 .loc 2 327 0
 157 0008 7B68     	 ldr r3,[r7,#4]
 158 000a 1A68     	 ldr r2,[r3]
 159 000c 7B68     	 ldr r3,[r7,#4]
 160 000e 1B7B     	 ldrb r3,[r3,#12]
 161 0010 101C     	 mov r0,r2
 162 0012 191C     	 mov r1,r3
 163 0014 FFF7FEFF 	 bl XMC_GPIO_SetOutputLow
 328:D:/Arduino Projects/Youtube/XMC1400 blinking LED Without Timers/LEDblinkNoTimers/Dave/Generated/DIGITAL_IO\digital_io.h **** }
 164              	 .loc 2 328 0
 165 0018 BD46     	 mov sp,r7
 166 001a 02B0     	 add sp,sp,#8
 167              	 
 168 001c 80BD     	 pop {r7,pc}
 169              	 .cfi_endproc
 170              	.LFE53:
 172 001e C046     	 .section .text.main,"ax",%progbits
 173              	 .align 2
 174              	 .global main
 175              	 .code 16
 176              	 .thumb_func
 178              	main:
 179              	.LFB56:
 180              	 .file 3 "../main.c"
   1:../main.c     **** /*
   2:../main.c     ****  * main.c
   3:../main.c     ****  *
   4:../main.c     ****  *  Created on: 2021 Sep 25 00:01:44
   5:../main.c     ****  *  Author: aniss
   6:../main.c     ****  */
   7:../main.c     **** 
   8:../main.c     **** 
   9:../main.c     **** 
  10:../main.c     **** 
  11:../main.c     **** #include "DAVE.h"                 //Declarations from DAVE Code Generation (includes SFR declaratio
  12:../main.c     **** 
  13:../main.c     **** /**
  14:../main.c     **** 
  15:../main.c     ****  * @brief main() - Application entry point
  16:../main.c     ****  *
  17:../main.c     ****  * <b>Details of function</b><br>
  18:../main.c     ****  * This routine is the application entry point. It is invoked by the device startup code. It is res
  19:../main.c     ****  * invoking the APP initialization dispatcher routine - DAVE_Init() and hosting the place-holder fo
  20:../main.c     ****  * code.
  21:../main.c     ****  */
  22:../main.c     **** 
  23:../main.c     **** int main(void)
  24:../main.c     **** {
 181              	 .loc 3 24 0
 182              	 .cfi_startproc
 183 0000 90B5     	 push {r4,r7,lr}
 184              	.LCFI12:
 185              	 .cfi_def_cfa_offset 12
 186              	 .cfi_offset 4,-12
 187              	 .cfi_offset 7,-8
 188              	 .cfi_offset 14,-4
 189 0002 8DB0     	 sub sp,sp,#52
 190              	.LCFI13:
 191              	 .cfi_def_cfa_offset 64
 192 0004 00AF     	 add r7,sp,#0
 193              	.LCFI14:
 194              	 .cfi_def_cfa_register 7
  25:../main.c     ****   DAVE_STATUS_t status;
  26:../main.c     **** 
  27:../main.c     ****   status = DAVE_Init();           /* Initialization of DAVE APPs  */
 195              	 .loc 3 27 0
 196 0006 FC1D     	 add r4,r7,#7
 197 0008 FFF7FEFF 	 bl DAVE_Init
 198 000c 031C     	 mov r3,r0
 199 000e 2370     	 strb r3,[r4]
  28:../main.c     **** 
  29:../main.c     ****   if (status != DAVE_STATUS_SUCCESS)
 200              	 .loc 3 29 0
 201 0010 FB1D     	 add r3,r7,#7
 202 0012 1B78     	 ldrb r3,[r3]
 203 0014 002B     	 cmp r3,#0
 204 0016 00D0     	 beq .L6
 205              	.L7:
  30:../main.c     ****   {
  31:../main.c     ****     /* Placeholder for error handler code. The while loop below can be replaced with an user error 
  32:../main.c     ****     XMC_DEBUG("DAVE APPs initialization failed\n");
  33:../main.c     **** 
  34:../main.c     ****     while(1U)
  35:../main.c     ****     {
  36:../main.c     **** 
  37:../main.c     ****     }
 206              	 .loc 3 37 0 discriminator 1
 207 0018 FEE7     	 b .L7
 208              	.L6:
  38:../main.c     ****   }
  39:../main.c     **** 
  40:../main.c     ****   /* Placeholder for user application code. The while loop below can be replaced with user applicat
  41:../main.c     ****   while(1U)
  42:../main.c     ****   {
  43:../main.c     **** 	  	  //USER CODE
  44:../main.c     **** 	  DIGITAL_IO_SetOutputLow(&LED0);        //the LED is hardware connected to a pull-up resistor, dr
 209              	 .loc 3 44 0
 210 001a 364B     	 ldr r3,.L28
 211 001c 181C     	 mov r0,r3
 212 001e FFF7FEFF 	 bl DIGITAL_IO_SetOutputLow
 213              	.LBB2:
  45:../main.c     **** 	  for (uint32_t i = 0 ; i <0xFFFF;i++);
 214              	 .loc 3 45 0
 215 0022 0023     	 mov r3,#0
 216 0024 FB62     	 str r3,[r7,#44]
 217 0026 02E0     	 b .L8
 218              	.L9:
 219              	 .loc 3 45 0 is_stmt 0 discriminator 3
 220 0028 FB6A     	 ldr r3,[r7,#44]
 221 002a 0133     	 add r3,r3,#1
 222 002c FB62     	 str r3,[r7,#44]
 223              	.L8:
 224              	 .loc 3 45 0 discriminator 1
 225 002e FB6A     	 ldr r3,[r7,#44]
 226 0030 314A     	 ldr r2,.L28+4
 227 0032 9342     	 cmp r3,r2
 228 0034 F8D9     	 bls .L9
 229              	.LBE2:
 230              	.LBB3:
  46:../main.c     **** 	  for (uint32_t i = 0 ; i <0xFFFF;i++);
 231              	 .loc 3 46 0 is_stmt 1
 232 0036 0023     	 mov r3,#0
 233 0038 BB62     	 str r3,[r7,#40]
 234 003a 02E0     	 b .L10
 235              	.L11:
 236              	 .loc 3 46 0 is_stmt 0 discriminator 3
 237 003c BB6A     	 ldr r3,[r7,#40]
 238 003e 0133     	 add r3,r3,#1
 239 0040 BB62     	 str r3,[r7,#40]
 240              	.L10:
 241              	 .loc 3 46 0 discriminator 1
 242 0042 BB6A     	 ldr r3,[r7,#40]
 243 0044 2C4A     	 ldr r2,.L28+4
 244 0046 9342     	 cmp r3,r2
 245 0048 F8D9     	 bls .L11
 246              	.LBE3:
 247              	.LBB4:
  47:../main.c     **** 	  for (uint32_t i = 0 ; i <0xFFFF;i++);
 248              	 .loc 3 47 0 is_stmt 1
 249 004a 0023     	 mov r3,#0
 250 004c 7B62     	 str r3,[r7,#36]
 251 004e 02E0     	 b .L12
 252              	.L13:
 253              	 .loc 3 47 0 is_stmt 0 discriminator 3
 254 0050 7B6A     	 ldr r3,[r7,#36]
 255 0052 0133     	 add r3,r3,#1
 256 0054 7B62     	 str r3,[r7,#36]
 257              	.L12:
 258              	 .loc 3 47 0 discriminator 1
 259 0056 7B6A     	 ldr r3,[r7,#36]
 260 0058 274A     	 ldr r2,.L28+4
 261 005a 9342     	 cmp r3,r2
 262 005c F8D9     	 bls .L13
 263              	.LBE4:
 264              	.LBB5:
  48:../main.c     **** 	  for (uint32_t i = 0 ; i <0xFFFF;i++);
 265              	 .loc 3 48 0 is_stmt 1
 266 005e 0023     	 mov r3,#0
 267 0060 3B62     	 str r3,[r7,#32]
 268 0062 02E0     	 b .L14
 269              	.L15:
 270              	 .loc 3 48 0 is_stmt 0 discriminator 3
 271 0064 3B6A     	 ldr r3,[r7,#32]
 272 0066 0133     	 add r3,r3,#1
 273 0068 3B62     	 str r3,[r7,#32]
 274              	.L14:
 275              	 .loc 3 48 0 discriminator 1
 276 006a 3B6A     	 ldr r3,[r7,#32]
 277 006c 224A     	 ldr r2,.L28+4
 278 006e 9342     	 cmp r3,r2
 279 0070 F8D9     	 bls .L15
 280              	.LBE5:
 281              	.LBB6:
  49:../main.c     **** 	  for (uint32_t i = 0 ; i <0xFFFF;i++);
 282              	 .loc 3 49 0 is_stmt 1
 283 0072 0023     	 mov r3,#0
 284 0074 FB61     	 str r3,[r7,#28]
 285 0076 02E0     	 b .L16
 286              	.L17:
 287              	 .loc 3 49 0 is_stmt 0 discriminator 3
 288 0078 FB69     	 ldr r3,[r7,#28]
 289 007a 0133     	 add r3,r3,#1
 290 007c FB61     	 str r3,[r7,#28]
 291              	.L16:
 292              	 .loc 3 49 0 discriminator 1
 293 007e FB69     	 ldr r3,[r7,#28]
 294 0080 1D4A     	 ldr r2,.L28+4
 295 0082 9342     	 cmp r3,r2
 296 0084 F8D9     	 bls .L17
 297              	.LBE6:
  50:../main.c     **** 	  DIGITAL_IO_SetOutputHigh(&LED0);      //the LED is hardware connected to a pull-up resistor, dri
 298              	 .loc 3 50 0 is_stmt 1
 299 0086 1B4B     	 ldr r3,.L28
 300 0088 181C     	 mov r0,r3
 301 008a FFF7FEFF 	 bl DIGITAL_IO_SetOutputHigh
 302              	.LBB7:
  51:../main.c     **** 	  for (uint32_t i = 0 ; i <0xFFFF;i++);
 303              	 .loc 3 51 0
 304 008e 0023     	 mov r3,#0
 305 0090 BB61     	 str r3,[r7,#24]
 306 0092 02E0     	 b .L18
 307              	.L19:
 308              	 .loc 3 51 0 is_stmt 0 discriminator 3
 309 0094 BB69     	 ldr r3,[r7,#24]
 310 0096 0133     	 add r3,r3,#1
 311 0098 BB61     	 str r3,[r7,#24]
 312              	.L18:
 313              	 .loc 3 51 0 discriminator 1
 314 009a BB69     	 ldr r3,[r7,#24]
 315 009c 164A     	 ldr r2,.L28+4
 316 009e 9342     	 cmp r3,r2
 317 00a0 F8D9     	 bls .L19
 318              	.LBE7:
 319              	.LBB8:
  52:../main.c     **** 	  for (uint32_t i = 0 ; i <0xFFFF;i++);
 320              	 .loc 3 52 0 is_stmt 1
 321 00a2 0023     	 mov r3,#0
 322 00a4 7B61     	 str r3,[r7,#20]
 323 00a6 02E0     	 b .L20
 324              	.L21:
 325              	 .loc 3 52 0 is_stmt 0 discriminator 3
 326 00a8 7B69     	 ldr r3,[r7,#20]
 327 00aa 0133     	 add r3,r3,#1
 328 00ac 7B61     	 str r3,[r7,#20]
 329              	.L20:
 330              	 .loc 3 52 0 discriminator 1
 331 00ae 7B69     	 ldr r3,[r7,#20]
 332 00b0 114A     	 ldr r2,.L28+4
 333 00b2 9342     	 cmp r3,r2
 334 00b4 F8D9     	 bls .L21
 335              	.LBE8:
 336              	.LBB9:
  53:../main.c     **** 	  for (uint32_t i = 0 ; i <0xFFFF;i++);
 337              	 .loc 3 53 0 is_stmt 1
 338 00b6 0023     	 mov r3,#0
 339 00b8 3B61     	 str r3,[r7,#16]
 340 00ba 02E0     	 b .L22
 341              	.L23:
 342              	 .loc 3 53 0 is_stmt 0 discriminator 3
 343 00bc 3B69     	 ldr r3,[r7,#16]
 344 00be 0133     	 add r3,r3,#1
 345 00c0 3B61     	 str r3,[r7,#16]
 346              	.L22:
 347              	 .loc 3 53 0 discriminator 1
 348 00c2 3B69     	 ldr r3,[r7,#16]
 349 00c4 0C4A     	 ldr r2,.L28+4
 350 00c6 9342     	 cmp r3,r2
 351 00c8 F8D9     	 bls .L23
 352              	.LBE9:
 353              	.LBB10:
  54:../main.c     **** 	  for (uint32_t i = 0 ; i <0xFFFF;i++);
 354              	 .loc 3 54 0 is_stmt 1
 355 00ca 0023     	 mov r3,#0
 356 00cc FB60     	 str r3,[r7,#12]
 357 00ce 02E0     	 b .L24
 358              	.L25:
 359              	 .loc 3 54 0 is_stmt 0 discriminator 3
 360 00d0 FB68     	 ldr r3,[r7,#12]
 361 00d2 0133     	 add r3,r3,#1
 362 00d4 FB60     	 str r3,[r7,#12]
 363              	.L24:
 364              	 .loc 3 54 0 discriminator 1
 365 00d6 FB68     	 ldr r3,[r7,#12]
 366 00d8 074A     	 ldr r2,.L28+4
 367 00da 9342     	 cmp r3,r2
 368 00dc F8D9     	 bls .L25
 369              	.LBE10:
 370              	.LBB11:
  55:../main.c     **** 	  for (uint32_t i = 0 ; i <0xFFFF;i++);
 371              	 .loc 3 55 0 is_stmt 1
 372 00de 0023     	 mov r3,#0
 373 00e0 BB60     	 str r3,[r7,#8]
 374 00e2 02E0     	 b .L26
 375              	.L27:
 376              	 .loc 3 55 0 is_stmt 0 discriminator 3
 377 00e4 BB68     	 ldr r3,[r7,#8]
 378 00e6 0133     	 add r3,r3,#1
 379 00e8 BB60     	 str r3,[r7,#8]
 380              	.L26:
 381              	 .loc 3 55 0 discriminator 1
 382 00ea BB68     	 ldr r3,[r7,#8]
 383 00ec 024A     	 ldr r2,.L28+4
 384 00ee 9342     	 cmp r3,r2
 385 00f0 F8D9     	 bls .L27
 386              	.LBE11:
  56:../main.c     ****   }
 387              	 .loc 3 56 0 is_stmt 1
 388 00f2 92E7     	 b .L6
 389              	.L29:
 390              	 .align 2
 391              	.L28:
 392 00f4 00000000 	 .word LED0
 393 00f8 FEFF0000 	 .word 65534
 394              	 .cfi_endproc
 395              	.LFE56:
 397              	 .text
 398              	.Letext0:
 399              	 .file 4 "d:\\downloads\\dave_4-4-2_64bit_2018-02-23\\dave-ide-4.4.2-64bit\\dave-ide-4.4.2-64bit\\eclipse\\arm-gcc-49\\arm-none-eabi\\include\\machine\\_default_types.h"
 400              	 .file 5 "d:\\downloads\\dave_4-4-2_64bit_2018-02-23\\dave-ide-4.4.2-64bit\\dave-ide-4.4.2-64bit\\eclipse\\arm-gcc-49\\arm-none-eabi\\include\\stdint.h"
 401              	 .file 6 "D:/Arduino Projects/Youtube/XMC1400 blinking LED Without Timers/LEDblinkNoTimers/Libraries/XMCLib/inc/xmc1_gpio.h"
 402              	 .file 7 "D:/Arduino Projects/Youtube/XMC1400 blinking LED Without Timers/LEDblinkNoTimers/Dave/Generated/DAVE.h"
 403              	 .file 8 "D:/Arduino Projects/Youtube/XMC1400 blinking LED Without Timers/LEDblinkNoTimers/Libraries/CMSIS/Include/cmsis_gcc.h"
 404              	 .file 9 "D:/Arduino Projects/Youtube/XMC1400 blinking LED Without Timers/LEDblinkNoTimers/Dave/Generated/DIGITAL_IO/digital_io_extern.h"